
LABET_SW_PROJECT.elf:     file format elf32-littlenios2
LABET_SW_PROJECT.elf
architecture: nios2, flags 0x00000112:
EXEC_P, HAS_SYMS, D_PAGED
start address 0x040001a4

Program Header:
    LOAD off    0x000000b4 vaddr 0x08004020 paddr 0x04000000 align 2**0
         filesz 0x000001a4 memsz 0x000001a4 flags r-x
    LOAD off    0x00000258 vaddr 0x040001a4 paddr 0x040001a4 align 2**0
         filesz 0x000189b8 memsz 0x000189b8 flags r-x
    LOAD off    0x00018c10 vaddr 0x04018b5c paddr 0x04018b5c align 2**0
         filesz 0x00001f38 memsz 0x00002418 flags rw-
    LOAD off    0x0001ab48 vaddr 0x08004000 paddr 0x08004000 align 2**0
         filesz 0x00000020 memsz 0x00000020 flags r-x

Sections:
Idx Name          Size      VMA       LMA       File off  Algn
  0 .entry        00000020  08004000  08004000  0001ab48  2**5
                  CONTENTS, ALLOC, LOAD, READONLY, CODE
  1 .exceptions   000001a4  08004020  04000000  000000b4  2**2
                  CONTENTS, ALLOC, LOAD, READONLY, CODE
  2 .text         000180cc  040001a4  040001a4  00000258  2**2
                  CONTENTS, ALLOC, LOAD, READONLY, CODE
  3 .rodata       000008ec  04018270  04018270  00018324  2**2
                  CONTENTS, ALLOC, LOAD, READONLY, DATA
  4 .rwdata       00001f38  04018b5c  04018b5c  00018c10  2**2
                  CONTENTS, ALLOC, LOAD, DATA, SMALL_DATA
  5 .bss          000004e0  0401aa94  0401aa94  0001ab48  2**2
                  ALLOC, SMALL_DATA
  6 .altmemddr_0  00000000  0401af74  0401af74  0001ab68  2**0
                  CONTENTS
  7 .onchip_memory2_0 00000000  080041c4  080041c4  0001ab68  2**0
                  CONTENTS
  8 .comment      00001b54  00000000  00000000  0001ab68  2**0
                  CONTENTS, READONLY
  9 .debug_aranges 00001338  00000000  00000000  0001c6c0  2**3
                  CONTENTS, READONLY, DEBUGGING
 10 .debug_pubnames 00001faa  00000000  00000000  0001d9f8  2**0
                  CONTENTS, READONLY, DEBUGGING
 11 .debug_info   00031887  00000000  00000000  0001f9a2  2**0
                  CONTENTS, READONLY, DEBUGGING
 12 .debug_abbrev 0000b3a1  00000000  00000000  00051229  2**0
                  CONTENTS, READONLY, DEBUGGING
 13 .debug_line   0001f3a5  00000000  00000000  0005c5ca  2**0
                  CONTENTS, READONLY, DEBUGGING
 14 .debug_frame  00002620  00000000  00000000  0007b970  2**2
                  CONTENTS, READONLY, DEBUGGING
 15 .debug_str    000035ca  00000000  00000000  0007df90  2**0
                  CONTENTS, READONLY, DEBUGGING
 16 .debug_alt_sim_info 00000020  00000000  00000000  0008155c  2**2
                  CONTENTS, READONLY, DEBUGGING
 17 .debug_ranges 00000770  00000020  00000020  0008157c  2**0
                  CONTENTS, READONLY, DEBUGGING
 18 .cpu          00000005  00000000  00000000  000866cd  2**0
                  CONTENTS, READONLY
 19 .simulation_enabled 00000001  00000000  00000000  000866d2  2**0
                  CONTENTS, READONLY
 20 .sysid_hash   00000004  00000000  00000000  000866d3  2**0
                  CONTENTS, READONLY
 21 .sysid_base   00000004  00000000  00000000  000866d7  2**0
                  CONTENTS, READONLY
 22 .sysid_time   00000004  00000000  00000000  000866db  2**0
                  CONTENTS, READONLY
 23 .stderr_dev   0000000b  00000000  00000000  000866df  2**0
                  CONTENTS, READONLY
 24 .stdin_dev    0000000b  00000000  00000000  000866ea  2**0
                  CONTENTS, READONLY
 25 .stdout_dev   0000000b  00000000  00000000  000866f5  2**0
                  CONTENTS, READONLY
 26 .sopc_system_name 00000012  00000000  00000000  00086700  2**0
                  CONTENTS, READONLY
 27 .quartus_project_dir 00000041  00000000  00000000  00086712  2**0
                  CONTENTS, READONLY
 28 .jdi          00004179  00000000  00000000  00086753  2**0
                  CONTENTS, READONLY
SYMBOL TABLE:
08004000 l    d  .entry	00000000 
08004020 l    d  .exceptions	00000000 
040001a4 l    d  .text	00000000 
04018270 l    d  .rodata	00000000 
04018b5c l    d  .rwdata	00000000 
0401aa94 l    d  .bss	00000000 
0401af74 l    d  .altmemddr_0	00000000 
080041c4 l    d  .onchip_memory2_0	00000000 
00000000 l    d  .comment	00000000 
00000000 l    d  .debug_aranges	00000000 
00000000 l    d  .debug_pubnames	00000000 
00000000 l    d  .debug_info	00000000 
00000000 l    d  .debug_abbrev	00000000 
00000000 l    d  .debug_line	00000000 
00000000 l    d  .debug_frame	00000000 
00000000 l    d  .debug_str	00000000 
00000000 l    d  .debug_alt_sim_info	00000000 
00000020 l    d  .debug_ranges	00000000 
00000000 l    d  *ABS*	00000000 
00000000 l    d  *ABS*	00000000 
00000000 l    d  *ABS*	00000000 
00000000 l    df *ABS*	00000000 /home/ucart/Desktop/microcart-f2013/BasicPrograms/LABET_SYSTEM/sw/LABET_SW_PROJECT_bsp/HAL/src/crt0.S
00000000 l    df *ABS*	00000000 ./HAL/inc/sys/alt_log_printf.h
00000000 l    df *ABS*	00000000 ./system.h
00000000 l    df *ABS*	00000000 ./HAL/inc/sys/alt_log_printf.h
00000000 l    df *ABS*	00000000 /home/ucart/Desktop/microcart-f2013/BasicPrograms/LABET_SYSTEM/sw/LABET_SW_PROJECT_bsp/HAL/src/crt0.S
00000000 l    df *ABS*	00000000 ./HAL/inc/nios2.h
00000000 l    df *ABS*	00000000 /home/ucart/Desktop/microcart-f2013/BasicPrograms/LABET_SYSTEM/sw/LABET_SW_PROJECT_bsp/HAL/src/crt0.S
00000000 l    df *ABS*	00000000 ./system.h
00000000 l    df *ABS*	00000000 ./linker.h
00000000 l    df *ABS*	00000000 ./system.h
00000000 l    df *ABS*	00000000 /home/ucart/Desktop/microcart-f2013/BasicPrograms/LABET_SYSTEM/sw/LABET_SW_PROJECT_bsp/HAL/src/crt0.S
00000000 l    df *ABS*	00000000 <command line>
00000000 l    df *ABS*	00000000 <built-in>
00000000 l    df *ABS*	00000000 /home/ucart/Desktop/microcart-f2013/BasicPrograms/LABET_SYSTEM/sw/LABET_SW_PROJECT_bsp//
00000000 l    df *ABS*	00000000 /home/ucart/Desktop/microcart-f2013/BasicPrograms/LABET_SYSTEM/sw/LABET_SW_PROJECT_bsp/HAL/src/crt0.S
040001dc l       .text	00000000 alt_after_alt_main
00000000 l    df *ABS*	00000000 /home/ucart/Desktop/microcart-f2013/BasicPrograms/LABET_SYSTEM/sw/LABET_SW_PROJECT_bsp/HAL/src/alt_irq_entry.S
00000000 l    df *ABS*	00000000 ./system.h
00000000 l    df *ABS*	00000000 ./linker.h
00000000 l    df *ABS*	00000000 ./system.h
00000000 l    df *ABS*	00000000 /home/ucart/Desktop/microcart-f2013/BasicPrograms/LABET_SYSTEM/sw/LABET_SW_PROJECT_bsp/HAL/src/alt_irq_entry.S
00000000 l    df *ABS*	00000000 <command line>
00000000 l    df *ABS*	00000000 <built-in>
00000000 l    df *ABS*	00000000 /home/ucart/Desktop/microcart-f2013/BasicPrograms/LABET_SYSTEM/sw/LABET_SW_PROJECT_bsp//
00000000 l    df *ABS*	00000000 /home/ucart/Desktop/microcart-f2013/BasicPrograms/LABET_SYSTEM/sw/LABET_SW_PROJECT_bsp/HAL/src/alt_irq_entry.S
00000000 l    df *ABS*	00000000 /home/ucart/Desktop/microcart-f2013/BasicPrograms/LABET_SYSTEM/sw/LABET_SW_PROJECT_bsp/HAL/src/alt_exception_entry.S
00000000 l    df *ABS*	00000000 ./system.h
00000000 l    df *ABS*	00000000 ./linker.h
00000000 l    df *ABS*	00000000 ./system.h
00000000 l    df *ABS*	00000000 /home/ucart/Desktop/microcart-f2013/BasicPrograms/LABET_SYSTEM/sw/LABET_SW_PROJECT_bsp/HAL/src/alt_exception_entry.S
00000000 l    df *ABS*	00000000 <command line>
00000000 l    df *ABS*	00000000 <built-in>
00000000 l    df *ABS*	00000000 /home/ucart/Desktop/microcart-f2013/BasicPrograms/LABET_SYSTEM/sw/LABET_SW_PROJECT_bsp//
00000000 l    df *ABS*	00000000 /home/ucart/Desktop/microcart-f2013/BasicPrograms/LABET_SYSTEM/sw/LABET_SW_PROJECT_bsp/HAL/src/alt_exception_entry.S
00000000 l    df *ABS*	00000000 alt_irq_handler.c
00000000 l    df *ABS*	00000000 ars.c
00000000 l    df *ABS*	00000000 attitude.c
00000000 l    df *ABS*	00000000 controls.c
00000000 l    df *ABS*	00000000 hello_world.c
0401aa94 l     O .bss	00000004 R.0
0401aa98 l     O .bss	00000004 w.1
0401aa9c l     O .bss	00000004 tmpf.2
0401aaa0 l     O .bss	00000004 tmpf2.3
0401aaa4 l     O .bss	00000001 signRzGyro.4
00000000 l    df *ABS*	00000000 imu.c
04002c08 l     F .text	00000068 read_IMU
04002bc8 l     F .text	00000040 conv14to16
0400297c l     F .text	0000024c alt_avalon_spi_command_hexcmd
00000000 l    df *ABS*	00000000 kalmanfilter.c
0401aad8 l     O .bss	00000040 H
0401ab18 l     O .bss	00000010 x
0401ab28 l     O .bss	00000040 P
0401ab68 l     O .bss	00000040 I
0401aba8 l     O .bss	00000040 Q
0401abe8 l     O .bss	00000040 R
0401aac0 l     O .bss	00000004 phi
0401aac4 l     O .bss	00000004 theta
0401aac8 l     O .bss	00000004 psi
00000000 l    df *ABS*	00000000 matrixmath.c
00000000 l    df *ABS*	00000000 ping.c
00000000 l    df *ABS*	00000000 s_atan.c
04018374 l     O .rodata	00000058 aT
040183cc l     O .rodata	00000020 atanlo
040183ec l     O .rodata	00000020 atanhi
00000000 l    df *ABS*	00000000 s_cos.c
00000000 l    df *ABS*	00000000 s_fabs.c
00000000 l    df *ABS*	00000000 s_sin.c
00000000 l    df *ABS*	00000000 s_tan.c
00000000 l    df *ABS*	00000000 w_asin.c
00000000 l    df *ABS*	00000000 w_atan2.c
00000000 l    df *ABS*	00000000 w_sqrt.c
00000000 l    df *ABS*	00000000 e_asin.c
00000000 l    df *ABS*	00000000 e_atan2.c
00000000 l    df *ABS*	00000000 e_rem_pio2.c
04018424 l     O .rodata	00000108 two_over_pi
0401852c l     O .rodata	00000080 npio2_hw
00000000 l    df *ABS*	00000000 e_sqrt.c
00000000 l    df *ABS*	00000000 k_cos.c
00000000 l    df *ABS*	00000000 k_rem_pio2.c
040185ac l     O .rodata	00000040 PIo2
040185ec l     O .rodata	00000010 init_jk
00000000 l    df *ABS*	00000000 k_sin.c
00000000 l    df *ABS*	00000000 k_tan.c
040185fc l     O .rodata	00000068 T
00000000 l    df *ABS*	00000000 s_floor.c
00000000 l    df *ABS*	00000000 s_isnan.c
00000000 l    df *ABS*	00000000 s_lib_ver.c
00000000 l    df *ABS*	00000000 s_matherr.c
00000000 l    df *ABS*	00000000 s_scalbn.c
00000000 l    df *ABS*	00000000 s_copysign.c
00000000 l    df *ABS*	00000000 nios2-fp-bit.c
0400add8 l     F .text	000001d8 _fpadd_parts
00000000 l    df *ABS*	00000000 nios2-fp-bit.c
00000000 l    df *ABS*	00000000 nios2-fp-bit.c
00000000 l    df *ABS*	00000000 nios2-fp-bit.c
00000000 l    df *ABS*	00000000 nios2-fp-bit.c
00000000 l    df *ABS*	00000000 nios2-fp-bit.c
00000000 l    df *ABS*	00000000 nios2-fp-bit.c
00000000 l    df *ABS*	00000000 nios2-fp-bit.c
00000000 l    df *ABS*	00000000 nios2-fp-bit.c
00000000 l    df *ABS*	00000000 nios2-dp-bit.c
0400b5f0 l     F .text	0000031c _fpadd_parts
00000000 l    df *ABS*	00000000 nios2-dp-bit.c
00000000 l    df *ABS*	00000000 nios2-dp-bit.c
00000000 l    df *ABS*	00000000 nios2-dp-bit.c
00000000 l    df *ABS*	00000000 nios2-dp-bit.c
00000000 l    df *ABS*	00000000 nios2-dp-bit.c
00000000 l    df *ABS*	00000000 nios2-dp-bit.c
00000000 l    df *ABS*	00000000 nios2-dp-bit.c
00000000 l    df *ABS*	00000000 nios2-dp-bit.c
00000000 l    df *ABS*	00000000 nios2-dp-bit.c
00000000 l    df *ABS*	00000000 nios2-dp-bit.c
00000000 l    df *ABS*	00000000 nios2-dp-bit.c
00000000 l    df *ABS*	00000000 nios2-dp-bit.c
00000000 l    df *ABS*	00000000 lib2-divmod.c
0400c52c l     F .text	00000060 udivmodsi4
00000000 l    df *ABS*	00000000 libgcc2.c
00000000 l    df *ABS*	00000000 libgcc2.c
00000000 l    df *ABS*	00000000 libgcc2.c
00000000 l    df *ABS*	00000000 nios2-fp-bit.c
00000000 l    df *ABS*	00000000 nios2-fp-bit.c
00000000 l    df *ABS*	00000000 nios2-fp-bit.c
00000000 l    df *ABS*	00000000 nios2-fp-bit.c
00000000 l    df *ABS*	00000000 nios2-dp-bit.c
00000000 l    df *ABS*	00000000 nios2-dp-bit.c
00000000 l    df *ABS*	00000000 nios2-dp-bit.c
00000000 l    df *ABS*	00000000 libgcc2.c
00000000 l    df *ABS*	00000000 errno.c
00000000 l    df *ABS*	00000000 fileno.c
00000000 l    df *ABS*	00000000 findfp.c
0400cfc0 l     F .text	00000058 std
00000000 l    df *ABS*	00000000 fopen.c
00000000 l    df *ABS*	00000000 fseek.c
00000000 l    df *ABS*	00000000 fstatr.c
00000000 l    df *ABS*	00000000 fwalk.c
00000000 l    df *ABS*	00000000 impure.c
04018e80 l     O .rwdata	0000037c impure_data
00000000 l    df *ABS*	00000000 int_errno.c
00000000 l    df *ABS*	00000000 makebuf.c
00000000 l    df *ABS*	00000000 mallocr.c
00000000 l    df *ABS*	00000000 memcpy.c
00000000 l    df *ABS*	00000000 memset.c
00000000 l    df *ABS*	00000000 openr.c
00000000 l    df *ABS*	00000000 printf.c
00000000 l    df *ABS*	00000000 refill.c
0400e140 l     F .text	00000024 lflush
00000000 l    df *ABS*	00000000 sbrkr.c
00000000 l    df *ABS*	00000000 stdio.c
00000000 l    df *ABS*	00000000 vfprintf1.c
0400e4b4 l     F .text	00000058 __sprint
0401868c l     O .rodata	00000010 blanks.0
0401869c l     O .rodata	00000010 zeroes.1
00000000 l    df *ABS*	00000000 wcrtomb.c
00000000 l    df *ABS*	00000000 wcsrtombs.c
00000000 l    df *ABS*	00000000 wctomb_r.c
00000000 l    df *ABS*	00000000 writer.c
00000000 l    df *ABS*	00000000 wsetup.c
00000000 l    df *ABS*	00000000 closer.c
00000000 l    df *ABS*	00000000 dtoa.c
04010a00 l     F .text	000001fc quorem
00000000 l    df *ABS*	00000000 fflush.c
00000000 l    df *ABS*	00000000 findfp1.c
0401aad0 l     O .bss	00000004 lock.0
00000000 l    df *ABS*	00000000 flags.c
00000000 l    df *ABS*	00000000 mallocr.c
00000000 l    df *ABS*	00000000 fvwrite.c
00000000 l    df *ABS*	00000000 locale.c
040188bc l     O .rodata	00000030 lconv
0401aa48 l     O .rwdata	00000004 charset
00000000 l    df *ABS*	00000000 lseekr.c
00000000 l    df *ABS*	00000000 malloc.c
00000000 l    df *ABS*	00000000 memchr.c
00000000 l    df *ABS*	00000000 memmove.c
00000000 l    df *ABS*	00000000 mprec.c
04018a04 l     O .rodata	0000000c p05.0
00000000 l    df *ABS*	00000000 readr.c
00000000 l    df *ABS*	00000000 mallocr.c
00000000 l    df *ABS*	00000000 s_isinf.c
00000000 l    df *ABS*	00000000 strcmp.c
00000000 l    df *ABS*	00000000 strlen.c
00000000 l    df *ABS*	00000000 mallocr.c
00000000 l    df *ABS*	00000000 libgcc2.c
00000000 l    df *ABS*	00000000 libgcc2.c
00000000 l    df *ABS*	00000000 libgcc2.c
00000000 l    df *ABS*	00000000 alt_close.c
04014f40 l     F .text	00000048 alt_get_errno
00000000 l    df *ABS*	00000000 alt_dev.c
04014f88 l     F .text	00000028 alt_dev_null_write
00000000 l    df *ABS*	00000000 alt_errno.c
00000000 l    df *ABS*	00000000 alt_fcntl.c
040150fc l     F .text	00000048 alt_get_errno
00000000 l    df *ABS*	00000000 alt_fstat.c
04015218 l     F .text	00000048 alt_get_errno
00000000 l    df *ABS*	00000000 alt_isatty.c
04015320 l     F .text	00000048 alt_get_errno
00000000 l    df *ABS*	00000000 alt_load.c
040153e4 l     F .text	00000068 alt_load_section
00000000 l    df *ABS*	00000000 alt_lseek.c
0401553c l     F .text	00000048 alt_get_errno
00000000 l    df *ABS*	00000000 alt_main.c
00000000 l    df *ABS*	00000000 alt_malloc_lock.c
00000000 l    df *ABS*	00000000 alt_open.c
0401562c l     F .text	000000c8 alt_file_locked
04015874 l     F .text	00000048 alt_get_errno
00000000 l    df *ABS*	00000000 alt_read.c
040159dc l     F .text	00000048 alt_get_errno
00000000 l    df *ABS*	00000000 alt_release_fd.c
00000000 l    df *ABS*	00000000 alt_sbrk.c
0401aa70 l     O .rwdata	00000004 heap_end
00000000 l    df *ABS*	00000000 alt_write.c
04015c60 l     F .text	00000048 alt_get_errno
00000000 l    df *ABS*	00000000 alt_sys_init.c
040197e0 l     O .rwdata	00001060 jtag_uart_0
0401a840 l     O .rwdata	000000c4 uart_0
0401a904 l     O .rwdata	000000c4 uart_1
04015d80 l     F .text	00000030 alt_dev_reg
00000000 l    df *ABS*	00000000 altera_avalon_jtag_uart_fd.c
00000000 l    df *ABS*	00000000 altera_avalon_jtag_uart_init.c
04015fa8 l     F .text	0000021c altera_avalon_jtag_uart_irq
040161c4 l     F .text	000000c0 altera_avalon_jtag_uart_timeout
00000000 l    df *ABS*	00000000 altera_avalon_jtag_uart_ioctl.c
00000000 l    df *ABS*	00000000 altera_avalon_jtag_uart_read.c
00000000 l    df *ABS*	00000000 altera_avalon_jtag_uart_write.c
00000000 l    df *ABS*	00000000 altera_avalon_timer_sc.c
04016870 l     F .text	00000074 alt_avalon_timer_sc_irq
00000000 l    df *ABS*	00000000 altera_avalon_timer_ts.c
00000000 l    df *ABS*	00000000 altera_avalon_timer_vars.c
00000000 l    df *ABS*	00000000 altera_avalon_uart_fd.c
00000000 l    df *ABS*	00000000 altera_avalon_uart_init.c
04016c60 l     F .text	00000098 altera_avalon_uart_irq
04016cf8 l     F .text	000000e8 altera_avalon_uart_rxirq
04016de0 l     F .text	00000168 altera_avalon_uart_txirq
00000000 l    df *ABS*	00000000 altera_avalon_uart_read.c
040171b8 l     F .text	00000048 alt_get_errno
00000000 l    df *ABS*	00000000 altera_avalon_uart_write.c
040173d8 l     F .text	00000048 alt_get_errno
00000000 l    df *ABS*	00000000 alt_alarm_start.c
00000000 l    df *ABS*	00000000 alt_dcache_flush_all.c
00000000 l    df *ABS*	00000000 alt_dev_llist_insert.c
0401763c l     F .text	00000048 alt_get_errno
00000000 l    df *ABS*	00000000 alt_do_ctors.c
00000000 l    df *ABS*	00000000 alt_do_dtors.c
00000000 l    df *ABS*	00000000 alt_find_dev.c
00000000 l    df *ABS*	00000000 alt_find_file.c
00000000 l    df *ABS*	00000000 alt_get_fd.c
00000000 l    df *ABS*	00000000 alt_icache_flush_all.c
00000000 l    df *ABS*	00000000 alt_iic.c
00000000 l    df *ABS*	00000000 alt_io_redirect.c
04017b14 l     F .text	000000c0 alt_open_fd
00000000 l    df *ABS*	00000000 alt_irq_register.c
00000000 l    df *ABS*	00000000 alt_irq_vars.c
00000000 l    df *ABS*	00000000 alt_tick.c
00000000 l    df *ABS*	00000000 altera_nios2_irq.c
00000000 l    df *ABS*	00000000 alt_icache_flush.c
00000000 l    df *ABS*	00000000 atexit.c
0401aad4 l     O .bss	00000004 lock.0
00000000 l    df *ABS*	00000000 exit.c
00000000 l    df *ABS*	00000000 memcmp.c
00000000 l    df *ABS*	00000000 alt_exit.c
04018220 l     F .text	00000030 alt_sim_halt
04013b5c g     F .text	000000b0 _mprec_log10
040188ec g     O .rodata	00000028 __mprec_tinytens
04015584 g     F .text	00000070 alt_main
04013014 g     F .text	00000064 _hi0bits
0400cf1c g     F .text	00000050 __ashldi3
04004160 g     F .text	00002280 MATRIXMATH_inverse4x4
0401ad68 g     O .bss	00000100 alt_irq
04006e3c g     F .text	00000018 fabs
04012aec g     F .text	00000064 _lseek_r
04007314 g     F .text	0000013c sqrt
04018b5c g       *ABS*	00000000 __flash_rwdata_start
0401221c g     F .text	000000a8 __sflags
0400c040 g     F .text	0000008c __eqdf2
0401a9d4 g     O .rwdata	00000004 print
0401af74 g       *ABS*	00000000 __alt_heap_start
0401a9e8 g     O .rwdata	00000004 curPosLon
0400e10c g     F .text	00000034 printf
040101dc g     F .text	00000064 _wcrtomb_r
040011c4 g     F .text	00000030 squared
0400e428 g     F .text	00000078 __sseek
0400d03c g     F .text	0000009c __sinit
04012a24 g     F .text	00000088 _setlocale_r
040120d0 g     F .text	0000006c __sfmoreglue
040003d0 g     F .text	0000017c ars_update
04015610 g     F .text	0000001c __malloc_unlock
0401ac28 g     O .bss	00000018 errLong
0400b230 g     F .text	00000138 __divsf3
0401aa78 g     O .rwdata	00000004 altera_avalon_timer_ts_freq
04012c44 g     F .text	00000108 memmove
0400d02c g     F .text	00000010 _cleanup
04012d4c g     F .text	000000b0 _Balloc
0400b500 g     F .text	00000094 __fixsfsi
0401a9ec g     O .rwdata	00000004 curPosPitch
0400c158 g     F .text	0000008c __gtdf2
0401a9dc g     O .rwdata	00000004 firstSample
0401aa18 g     O .rwdata	00000004 manualControl
0400cf6c g     F .text	00000008 __errno
0401ac40 g     O .bss	00000018 errPitch
04003a4c g     F .text	00000078 KALMANFILTER_calculateK
0401ac58 g     O .bss	00000018 errYaw
08004000 g     F .entry	0000001c __reset
04013934 g     F .text	0000017c _d2b
04013168 g     F .text	000001d4 _multiply
04000000 g       *ABS*	00000000 __flash_exceptions_start
0400d61c g     F .text	00000060 _fstat_r
0401aa08 g     O .rwdata	00000004 targetPitch
0401aacc g     O .bss	00000004 errno
0400c47c g     F .text	00000040 __make_dp
0400a980 g     F .text	00000210 floor
04013ab0 g     F .text	000000ac _ratio
0400ca24 g     F .text	0000002c __make_fp
0401aa68 g     O .rwdata	00000004 alt_argv
040229c8 g       *ABS*	00000000 _gp
04004008 g     F .text	000000ac MATRIXMATH_add
0400b008 g     F .text	00000064 __subsf3
04012f18 g     F .text	000000fc _s2b
0401312c g     F .text	0000003c _i2b
0400026c g     F .text	00000164 ars_predict
0401aa10 g     O .rwdata	00000004 manualThrottle
0401aa0c g     O .rwdata	00000004 targetRoll
04002ed4 g     F .text	0000004c KALMANFILTER_getData
04019660 g     O .rwdata	00000180 alt_fd_list
04002788 g     F .text	000000ac IMU_reg_display
04008124 g     F .text	0000083c __ieee754_rem_pio2
04017734 g     F .text	00000090 alt_find_dev
0401aa00 g     O .rwdata	00000004 targetPosLat
0400df50 g     F .text	000000bc memcpy
0400d018 g     F .text	00000014 _cleanup_r
0400c2fc g     F .text	000000d0 __floatsidf
04017bd4 g     F .text	00000074 alt_io_redirect
04000cf8 g     F .text	000002e8 get_PID_correction
0400c270 g     F .text	0000008c __ltdf2
04018270 g       *ABS*	00000000 __DTOR_END__
040005fc g     F .text	00000034 setRudder
04017f88 g     F .text	0000001c altera_nios2_irq_init
040163e8 g     F .text	00000234 altera_avalon_jtag_uart_read
04012b50 g     F .text	00000014 malloc
08004000 g       *ABS*	00000000 __alt_mem_onchip_memory2_0
0400c628 g     F .text	00000010 __udivsi3
04015260 g     F .text	000000c0 isatty
0401893c g     O .rodata	000000c8 __mprec_tens
04012aac g     F .text	00000008 __locale_charset
04008c7c g     F .text	000003e0 __kernel_cos
04017fa4 g     F .text	0000008c alt_icache_flush
0401aa30 g     O .rwdata	00000004 __malloc_top_pad
0401aa44 g     O .rwdata	00000004 __mb_cur_max
04012ab4 g     F .text	0000000c _localeconv_r
04006494 g     F .text	00000124 getPingDistance
0400e2ec g     F .text	0000004c _sbrk_r
0401aa04 g     O .rwdata	00000004 targetPosLon
0401a9cc g     O .rwdata	00000004 phi
0400d750 g     F .text	00000148 __smakebuf
04013c0c g     F .text	00000064 _read_r
0401962c g     O .rwdata	0000000c __lc_ctype
0401aa5c g     O .rwdata	00000004 alt_max_fd
0400cce0 g     F .text	00000128 __unpack_d
04011fe8 g     F .text	000000e8 fflush
0401aa28 g     O .rwdata	00000004 __malloc_max_sbrked_mem
04017c48 g     F .text	000001a4 alt_irq_register
04009e4c g     F .text	00000320 __kernel_sin
0400b594 g     F .text	0000005c __extendsfdf2
0400b90c g     F .text	0000006c __adddf3
0400b3e8 g     F .text	00000080 __nesf2
04014928 g     F .text	0000051c __umoddi3
0401544c g     F .text	000000f0 lseek
0401aab8 g     O .bss	00000004 fd
0401aa1c g     O .rwdata	00000004 __fdlib_version
04013c70 g     F .text	00000550 _realloc_r
0401af74 g       *ABS*	00000000 __bss_end
04017e88 g     F .text	00000100 alt_tick
04013078 g     F .text	000000b4 _lo0bits
040143c8 g     F .text	00000560 __udivdi3
04018914 g     O .rodata	00000028 __mprec_bigtens
040135a0 g     F .text	00000064 __mcmp
04016b94 g     F .text	000000cc altera_avalon_uart_init
0401aaa8 g     O .bss	00000004 lastMicros
04017ad4 g     F .text	00000040 alt_ic_irq_enabled
04002c70 g     F .text	00000204 KALMANFILTER_init
04017dec g     F .text	0000009c alt_alarm_stop
0401ac70 g     O .bss	0000000c RwAcc
0401aa7c g     O .rwdata	00000004 alt_irq_active
0400378c g     F .text	0000004c KALMANFILTER_calculatexp
080040ec g     F .exceptions	000000d8 alt_irq_handler
04019638 g     O .rwdata	00000028 alt_dev_null
0400905c g     F .text	00000df0 __kernel_rem_pio2
0400c87c g     F .text	000000b4 __unpack_f
04003b30 g     F .text	00000088 KALMANFILTER_calculatex
040039c4 g     F .text	00000088 KALMANFILTER_calculatePp
04017574 g     F .text	00000018 alt_dcache_flush_all
0400c3cc g     F .text	000000b0 __fixdfsi
0401a9c8 g     O .rwdata	00000004 theta
0401aa94 g       *ABS*	00000000 __ram_rwdata_end
040141c0 g     F .text	00000044 isinf
0401aa14 g     O .rwdata	00000004 autoThrottle
04000594 g     F .text	00000034 setThrottle
0401aa54 g     O .rwdata	00000008 alt_dev_list
04000000 g       *ABS*	00000000 __alt_mem_altmemddr_0
0400054c g     F .text	00000048 initControls
04015b40 g     F .text	00000120 write
04007d9c g     F .text	00000388 __ieee754_atan2
04016a8c g     F .text	0000001c alt_timestamp_freq
040032ac g     F .text	00000338 KALMANFILTER_eulerToQuaternion
04002f20 g     F .text	00000278 KALMANFILTER_convert
04018b5c g       *ABS*	00000000 __ram_rodata_end
04015144 g     F .text	000000d4 fstat
0400c6f8 g     F .text	00000050 __lshrdi3
0401aa40 g     O .rwdata	00000004 __nlocale_changed
0400c638 g     F .text	00000010 __umodsi3
0401aab0 g     O .bss	00000008 Awz
0401af74 g       *ABS*	00000000 end
0400c748 g     F .text	00000134 __pack_f
04017200 g     F .text	000001d8 altera_avalon_uart_write
04018b98 g     O .rwdata	000000ea reg_defaults
040006a8 g     F .text	00000058 setZero
0400d5f8 g     F .text	00000024 fseek
0401333c g     F .text	0000012c _pow5mult
04015ee8 g     F .text	000000c0 altera_avalon_jtag_uart_init
04007450 g     F .text	0000094c __ieee754_asin
04018270 g       *ABS*	00000000 __CTOR_LIST__
08000000 g       *ABS*	00000000 __alt_stack_pointer
040168e4 g     F .text	0000008c alt_avalon_timer_sc_init
04016afc g     F .text	00000054 altera_avalon_uart_write_fd
04016b50 g     F .text	00000044 altera_avalon_uart_close_fd
0401661c g     F .text	00000254 altera_avalon_jtag_uart_write
04006ccc g     F .text	00000170 cos
04012b78 g     F .text	000000cc memchr
0400e50c g     F .text	00001c64 ___vfprintf_internal_r
040123e8 g     F .text	000002b8 _free_r
04010264 g     F .text	00000140 _wcsrtombs_r
0401aa3c g     O .rwdata	00000004 __mlocale_changed
0401aa2c g     O .rwdata	00000004 __malloc_sbrk_base
040001a4 g     F .text	0000003c _start
0401aa84 g     O .rwdata	00000004 _alt_tick_rate
04002834 g     F .text	00000148 readUsefulIMU
04000664 g     F .text	00000044 setGear
04006e54 g     F .text	00000170 sin
040071c0 g     F .text	00000154 atan2
0401aa88 g     O .rwdata	00000004 _alt_nticks
040158bc g     F .text	00000120 read
04015cd8 g     F .text	000000a8 alt_sys_init
0400b468 g     F .text	00000098 __floatsisf
040037d8 g     F .text	000001ec KALMANFILTER_calculateA
0400e0a8 g     F .text	00000064 _open_r
040103a4 g     F .text	0000003c wcsrtombs
04016284 g     F .text	0000006c altera_avalon_jtag_uart_close
04018b5c g       *ABS*	00000000 __ram_rwdata_start
04018270 g       *ABS*	00000000 __ram_rodata_start
040191fc g     O .rwdata	00000028 __malloc_current_mallinfo
0401ac7c g     O .bss	0000000c RwGyro
0400b368 g     F .text	00000080 __eqsf2
040126a0 g     F .text	00000384 __sfvwrite
0400c6d8 g     F .text	00000020 __negdi2
0401ac88 g     O .bss	00000014 UAVPitch
0401a9e0 g     O .rwdata	00000004 curPosAlt
04015db0 g     F .text	00000054 altera_avalon_jtag_uart_read_fd
040178a8 g     F .text	000000ac alt_get_fd
0400ce08 g     F .text	00000114 __fpcmp_parts_d
040109a4 g     F .text	0000005c _close_r
040181b0 g     F .text	00000070 memcmp
04015e58 g     F .text	00000044 altera_avalon_jtag_uart_close_fd
0401af74 g       *ABS*	00000000 __alt_stack_base
04015e9c g     F .text	0000004c altera_avalon_jtag_uart_ioctl_fd
0400bdf0 g     F .text	00000250 __divdf3
0401213c g     F .text	000000e0 __sfp
04019224 g     O .rwdata	00000408 __malloc_av_
0400b9f0 g     F .text	00000400 __muldf3
0400e338 g     F .text	00000070 __sread
04018664 g     O .rodata	00000010 __thenan_sf
040177c4 g     F .text	000000e4 alt_find_file
0401758c g     F .text	000000b0 alt_dev_llist_insert
040155f4 g     F .text	0000001c __malloc_lock
04015a80 g     F .text	000000c0 sbrk
04014318 g     F .text	000000b0 _calloc_r
0401ac9c g     O .bss	0000000c RwEst
0400d1c8 g     F .text	0000001c fopen
0401aca8 g     O .bss	00000014 UAVRoll
0401aa94 g       *ABS*	00000000 __bss_start
04018b5c g     O .rwdata	0000003c data
0400e00c g     F .text	0000009c memset
040063e0 g     F .text	000000b4 MATRIXMATH_transpose
040008ec g     F .text	0000040c getCorrections
040011f4 g     F .text	000008bc main
0401aa6c g     O .rwdata	00000004 alt_envp
0401aa24 g     O .rwdata	00000004 __malloc_max_total_mem
04015e04 g     F .text	00000054 altera_avalon_jtag_uart_write_fd
04013788 g     F .text	00000088 _ulp
0401aaac g     O .bss	00000004 interval
0400e4a0 g     F .text	00000014 __sclose
0400abc4 g     F .text	00000008 matherr
08000000 g       *ABS*	00000000 __alt_heap_limit
0400c4bc g     F .text	00000070 __truncdfsf2
04016970 g     F .text	00000090 alt_timestamp_start
0401ae68 g     O .bss	0000010c _atexit0
04010bfc g     F .text	000013ec _dtoa_r
0400d898 g     F .text	000006b8 _malloc_r
0401aa60 g     O .rwdata	00000004 alt_errno
0400d67c g     F .text	000000d4 _fwalk
0401acbc g     O .bss	00000014 UAVAlt
0400c58c g     F .text	00000050 __divsi3
04018674 g     O .rodata	00000014 __thenan_df
040122c4 g     F .text	00000124 _malloc_trim_r
0401a9fc g     O .rwdata	00000004 targetPosAlt
04018270 g       *ABS*	00000000 __CTOR_END__
0400b06c g     F .text	000001c4 __mulsf3
0401a9f0 g     O .rwdata	00000004 curPosRoll
04014204 g     F .text	000000b8 strcmp
04018270 g       *ABS*	00000000 __flash_rodata_start
04018270 g       *ABS*	00000000 __DTOR_LIST__
04006fc4 g     F .text	000000d0 tan
0401acd0 g     O .bss	00000018 errLat
0401a9d8 g     O .rwdata	00000004 count
0400adb4 g     F .text	00000024 copysign
0400c0cc g     F .text	0000008c __nedf2
04003198 g     F .text	00000114 KALMANFILTER_eulerKalman
04015ca8 g     F .text	00000030 alt_irq_init
04015a24 g     F .text	0000005c alt_release_fd
04010898 g     F .text	0000010c __swsetup
040065b8 g     F .text	00000714 atan
04018a10 g     O .rodata	00000100 .hidden __clz_tab
040005c8 g     F .text	00000034 setAileron
0401aa38 g     O .rwdata	00000004 _PathLocale
04018030 g     F .text	0000009c atexit
0401ace8 g     O .bss	00000014 UAVLon
04010834 g     F .text	00000064 _write_r
04000884 g     F .text	00000068 initializeToZero
04013810 g     F .text	00000124 _b2d
04007094 g     F .text	0000012c asin
04012ac0 g     F .text	0000001c setlocale
04000630 g     F .text	00000034 setElevator
0401aa20 g     O .rwdata	00000004 _impure_ptr
0401aa64 g     O .rwdata	00000004 alt_argc
0400abcc g     F .text	000001e8 scalbn
0401aa74 g     O .rwdata	00000004 altera_avalon_timer_ts_base
040176dc g     F .text	00000058 _do_dtors
0400d1e4 g     F .text	00000414 _fseek_r
0400ab90 g     F .text	00000034 isnan
08004020 g       .exceptions	00000000 alt_irq_entry
0401aa4c g     O .rwdata	00000008 alt_fs_list
08004020 g       *ABS*	00000000 __ram_exceptions_start
04012adc g     F .text	00000010 localeconv
04016a00 g     F .text	0000008c alt_timestamp
04012e20 g     F .text	000000f8 _multadd
04008960 g     F .text	0000031c __ieee754_sqrt
0401a9d0 g     O .rwdata	00000004 yaw
04017980 g     F .text	00000040 alt_ic_isr_register
0401aa94 g       *ABS*	00000000 _edata
04016aa8 g     F .text	00000054 altera_avalon_uart_read_fd
040040b4 g     F .text	000000ac MATRIXMATH_subtract
0401af74 g       *ABS*	00000000 _end
0401acfc g     O .bss	00000018 errRoll
080041c4 g       *ABS*	00000000 __ram_exceptions_end
040162f0 g     F .text	000000f8 altera_avalon_jtag_uart_ioctl
040035e4 g     F .text	000001a8 KALMANFILTER_eulerAccel
04017a48 g     F .text	0000008c alt_ic_irq_disable
0400e3a8 g     F .text	00000080 __swrite
0401aa34 g     O .rwdata	00000004 __malloc_trim_threshold
040180cc g     F .text	000000e4 exit
0401aabc g     O .bss	00000004 timestampFix
0401ad14 g     O .bss	00000018 errAlt
04003bb8 g     F .text	000002ec KALMANFILTER_calculatePhiThetaPsi
04013604 g     F .text	00000184 __mdiff
04000fe0 g     F .text	000000d4 CRC
040001e0 g     F .text	0000008c init_Gyro1DKalman
0400c5dc g     F .text	0000004c __modsi3
0401ad2c g     O .bss	00000014 UAVYaw
08000000 g       *ABS*	00000000 __alt_data_end
08004020 g     F .exceptions	00000000 alt_exception
04002e74 g     F .text	00000060 KALMANFILTER_update
04003ea4 g     F .text	00000164 MATRIXMATH_multiply
0401a9e4 g     O .rwdata	00000004 curPosLat
0400cf74 g     F .text	0000004c fileno
04001ab0 g     F .text	00000cd8 getEstimatedInclination
04016f48 g     F .text	00000058 altera_avalon_uart_close
0400c930 g     F .text	000000f4 __fpcmp_parts_f
0400d0d8 g     F .text	000000f0 _fopen_r
04018250 g     F .text	00000020 _exit
0401a9f8 g     O .rwdata	00000004 targetDir
04017420 g     F .text	00000154 alt_alarm_start
0400c648 g     F .text	00000090 __muldi3
0401a9f4 g     O .rwdata	00000004 curPosYaw
0401ad40 g     O .bss	00000014 UAVLat
040142bc g     F .text	0000005c strlen
040156f4 g     F .text	00000180 open
0400c1e4 g     F .text	0000008c __gedf2
04017954 g     F .text	0000002c alt_icache_flush_all
0400e164 g     F .text	00000188 __srefill
0401ad54 g     O .bss	00000012 currentHeliState
0401aa80 g     O .rwdata	00000004 alt_priority_mask
04000700 g     F .text	00000184 convert
04018c82 g     O .rwdata	000001fb reg_str
040179c0 g     F .text	00000088 alt_ic_irq_enable
04010170 g     F .text	0000006c __vfprintf_internal
04016fa0 g     F .text	00000218 altera_avalon_uart_read
040103e0 g     F .text	00000454 _wctomb_r
0400b978 g     F .text	00000078 __subdf3
04014fb0 g     F .text	0000014c fcntl
0401aa8c g     O .rwdata	00000008 alt_alarm_list
0400a16c g     F .text	00000814 __kernel_tan
04017684 g     F .text	00000058 _do_ctors
04003ac4 g     F .text	0000006c KALMANFILTER_calculateP
04010240 g     F .text	00000024 wcrtomb
04014e44 g     F .text	000000fc close
0400afb0 g     F .text	00000058 __addsf3
04015368 g     F .text	0000007c alt_load
0400ca50 g     F .text	00000290 __pack_d
040010b4 g     F .text	00000110 normalize3DVector
04013468 g     F .text	00000138 _lshift
04012b64 g     F .text	00000014 free
04012dfc g     F .text	00000024 _Bfree


Disassembly of section .entry:

08004000 <__reset>:
    /* Assume the instruction cache size is always a power of two. */
#if NIOS2_ICACHE_SIZE > 0x8000
    movhi r2, %hi(NIOS2_ICACHE_SIZE)
#else
    movui r2, NIOS2_ICACHE_SIZE
 8004000:	00a00014 	movui	r2,32768
#endif

0:
    initi r2
 8004004:	1001483a 	initi	r2
    addi r2, r2, -NIOS2_ICACHE_LINE_SIZE
 8004008:	10bff804 	addi	r2,r2,-32
    bgt r2, zero, 0b
 800400c:	00bffd16 	blt	zero,r2,8004004 <__alt_mem_onchip_memory2_0+0x4>
1:

    /*
     * The following debug information tells the ISS not to run the loop above
     * but to perform its actions using faster internal code.
     */
    .pushsection .debug_alt_sim_info
    .int 1, 1, 0b, 1b
    .popsection
#endif /* Initialize Instruction Cache */

/*
 * Jump to the _start entry point in the .text section if reset code
 * is allowed or if optimizing for RTL simulation.
 */
#if defined(ALT_ALLOW_CODE_AT_RESET) || defined(ALT_SIM_OPTIMIZE)
    /* Jump to the _start entry point in the .text section. */
    movhi r1, %hi(_start)
 8004010:	00410034 	movhi	at,1024
    ori r1, r1, %lo(_start)
 8004014:	08406914 	ori	at,at,420
    jmp r1
 8004018:	0800683a 	jmp	at
 800401c:	00000000 	call	0 <__alt_mem_altmemddr_0-0x4000000>
Disassembly of section .exceptions:

08004020 <alt_exception>:
         * caller saved registers on the stack (See the Nios2 ABI
         * documentation for details).
         */

        addi  sp, sp, -76
 8004020:	deffed04 	addi	sp,sp,-76

#ifdef ALT_STACK_CHECK

        bltu  sp, et, .Lstack_overflow

#endif

#endif

        stw   ra,  0(sp)
 8004024:	dfc00015 	stw	ra,0(sp)

        /*
         * Leave a gap in the stack frame at 4(sp) for the muldiv handler to
         * store zero into.
         */

        stw   r1,   8(sp)
 8004028:	d8400215 	stw	at,8(sp)
        stw   r2,  12(sp)
 800402c:	d8800315 	stw	r2,12(sp)
        stw   r3,  16(sp)
 8004030:	d8c00415 	stw	r3,16(sp)
        stw   r4,  20(sp)
 8004034:	d9000515 	stw	r4,20(sp)
        stw   r5,  24(sp)
 8004038:	d9400615 	stw	r5,24(sp)
        stw   r6,  28(sp)
 800403c:	d9800715 	stw	r6,28(sp)
        stw   r7,  32(sp)
 8004040:	d9c00815 	stw	r7,32(sp)

        rdctl r5, estatus
 8004044:	000b307a 	rdctl	r5,estatus

        stw   r8,  36(sp)
 8004048:	da000915 	stw	r8,36(sp)
        stw   r9,  40(sp)
 800404c:	da400a15 	stw	r9,40(sp)
        stw   r10, 44(sp)
 8004050:	da800b15 	stw	r10,44(sp)
        stw   r11, 48(sp)
 8004054:	dac00c15 	stw	r11,48(sp)
        stw   r12, 52(sp)
 8004058:	db000d15 	stw	r12,52(sp)
        stw   r13, 56(sp)
 800405c:	db400e15 	stw	r13,56(sp)
        stw   r14, 60(sp)
 8004060:	db800f15 	stw	r14,60(sp)
        stw   r15, 64(sp)
 8004064:	dbc01015 	stw	r15,64(sp)

        /*
         * ea-4 contains the address of the instruction being executed
         * when the exception occured. For interrupt exceptions, we will
         * will be re-issue the isntruction. Store it in 72(sp)
         */
        stw   r5,  68(sp)  /* estatus */
 8004068:	d9401115 	stw	r5,68(sp)
        addi  r15, ea, -4  /* instruction that caused exception */
 800406c:	ebffff04 	addi	r15,ea,-4
        stw   r15,  72(sp)
 8004070:	dbc01215 	stw	r15,72(sp)
        /*
         * Test to see if the exception was a software exception or caused 
         * by an external interrupt, and vector accordingly.
         */
        rdctl r4, ipending
 8004074:	0009313a 	rdctl	r4,ipending
        andi  r2, r5, 1
 8004078:	2880004c 	andi	r2,r5,1
        beq   r2, zero, .Lnot_irq
 800407c:	10000326 	beq	r2,zero,800408c <__ram_exceptions_start+0x6c>
        beq   r4, zero, .Lnot_irq
 8004080:	20000226 	beq	r4,zero,800408c <__ram_exceptions_start+0x6c>
#endif /* ALT_CI_INTERRUPT_VECTOR_N */

        .section .exceptions.irqhandler, "xa"
        /*
         * Now that all necessary registers have been preserved, call 
         * alt_irq_handler() to process the interrupts.
         */

        call alt_irq_handler
 8004084:	80040ec0 	call	80040ec <alt_irq_handler>

        .section .exceptions.irqreturn, "xa"

        br    .Lexception_exit
 8004088:	00000306 	br	8004098 <__ram_exceptions_start+0x78>

        /*
         * The interrupt testing code (.exceptions.irqtest) will be
         * linked here here. If an interrupt is active, it calls the HAL
         * IRQ handler (alt_irq_handler()) which successively calls
         * registered interrupt handler(s) until no interrupts remain
         * pending. It then jumps to .exceptions.exit. If there is no
         * interrupt then it continues to .exception.notirq, below.
         */

        .section .exceptions.notirq, "xa"

        /*
         * Prepare to service unimplemtned instructions or traps,
         * each of which is optionally inked into section .exceptions.soft,
         * which will preceed .exceptions.unknown below.
         *
         * Unlike interrupts, we want to skip the exception-causing instructon
         * upon completion, so we write ea (address of instruction *after*
         * the one where the exception occured) into 72(sp). The actual
         * instruction that caused the exception is written in r2, which these
         * handlers will utilize.
         */
        stw   ea,  72(sp)  /* Don't re-issue */
 800408c:	df401215 	stw	ea,72(sp)
        ldw   r2, -4(ea)   /* Instruction that caused exception */
 8004090:	e8bfff17 	ldw	r2,-4(ea)

        /*
         * Other exception handling code, if enabled, will be linked here.
         * This includes unimplemted (multiply/divide) instruction support
         * (a BSP generaton option), and a trap handler (that would typically
         * be augmented with user-specific code). These are not linked in by
         * default.
         */

        /*
         * In the context of linker sections, "unknown" are all exceptions
         * not handled by the built-in handlers above (interupt, and trap or
         * unimplemented instruction decoding, if enabled).
         *
         * Advanced exception types can be serviced by registering a handler.
         * To do so, enable the "Enable Instruction-related Exception API" HAL
         * BSP setting. If this setting is disabled, this handler code will
         * either break (if the debug core is present) or enter an infinite
         * loop because we don't how how to handle the exception.
         */
        .section .exceptions.unknown
#ifdef ALT_INCLUDE_INSTRUCTION_RELATED_EXCEPTION_API
        /*
         * The C-based HAL routine alt_instruction_exception_entry() will
         * attempt to service the exception by calling a user-registered
         * exception handler using alt_instruction_exception_register().
         * If no handler was registered it will either break (if the
         * debugger is present) or go into an infinite loop since the
         * handling behavior is undefined; in that case we will not return here.
         */

        /* Load exception-causing address as first argument (r4) */
        addi   r4, ea, -4

        /* Call the instruction-exception entry */
        call   alt_instruction_exception_entry

        /*
         * If alt_instruction_exception_entry() returned, the exception was
         * serviced by a user-registered routine. Its return code (now in r2)
         * indicates whether to re-issue or skip the exception-causing
         * instruction
         *
         * Return code was 0: Skip. The instruction after the exception is
         * already stored in 72(sp).
         */
        bne   r2, r0, .Lexception_exit

        /*
         * Otherwise, modify 72(sp) to re-issue the instruction that caused the
         * exception.
         */
        addi  r15, ea, -4  /* instruction that caused exception */
        stw   r15,  72(sp)

#else /* ALT_INCLUDE_INSTRUCTION_RELATED_EXCEPTION_API disabled */

        /*
         * We got here because an instruction-related exception occured, but the
         * handler API was not compiled in. We do not presume to know how to
         * handle it. If the debugger is present, break, otherwise hang.
         *
         *  If you get here then one of the following could have happened:
         *
         *  - An instruction-generated exception occured, and the processor
         *    does not have the extra exceptions feature enabled, or you
         *    have not registered a handler using
         *    alt_instruction_exception_register()
         *
         *  Some examples of instruction-generated exceptions and why they
         *  might occur:
         *
         *  - Your program could have been compiled for a full-featured
         *    Nios II core, but it is running on a smaller core, and
         *    instruction emulation has been disabled by defining
         *    ALT_NO_INSTRUCTION_EMULATION.
         *
         *    You can work around the problem by re-enabling instruction
         *    emulation, or you can figure out why your program is being
         *    compiled for a system other than the one that it is running on.
         *
         *  - Your program has executed a trap instruction, but has not
         *    implemented a handler for this instruction.
         *
         *  - Your program has executed an illegal instruction (one which is
         *    not defined in the instruction set).
         *
         *  - Your processor includes an MMU or MPU, and you have enabled it
         *    before registering an exception handler to service exceptions it
         *    generates.
         *
         * The problem could also be hardware related:
         *  - If your hardware is broken and is generating spurious interrupts
         *    (a peripheral which negates its interrupt output before its
         *    interrupt handler has been executed will cause spurious
         *    interrupts)
         */
#ifdef NIOS2_HAS_DEBUG_STUB
       /*
        *  Either tell the user now (if there is a debugger attached) or go into
        *  the debug monitor which will loop until a debugger is attached.
        */
        break
 8004094:	003da03a 	break	0
#else
       /*
        *  If there is no debug stub then a BREAK will probably cause a reboot.
        *  An infinate loop will probably be more useful.
        */
0:
        br   0b
#endif /* NIOS2_HAS_DEBUG_STUB */

#endif /* ALT_INCLUDE_INSTRUCTION_RELATED_EXCEPTION_API */

        .section .exceptions.exit.label
.Lexception_exit:

        .section .exceptions.exit, "xa"

        /* 
         * Restore the saved registers, so that all general purpose registers 
         * have been restored to their state at the time the interrupt occured.
         */

        ldw   r5,  68(sp)
 8004098:	d9401117 	ldw	r5,68(sp)
        ldw   ea,  72(sp)  /* This becomes the PC once eret is executed */
 800409c:	df401217 	ldw	ea,72(sp)
        ldw   ra,   0(sp)
 80040a0:	dfc00017 	ldw	ra,0(sp)

        wrctl estatus, r5
 80040a4:	2801707a 	wrctl	estatus,r5

        ldw   r1,   8(sp)
 80040a8:	d8400217 	ldw	at,8(sp)
        ldw   r2,  12(sp)
 80040ac:	d8800317 	ldw	r2,12(sp)
        ldw   r3,  16(sp)
 80040b0:	d8c00417 	ldw	r3,16(sp)
        ldw   r4,  20(sp)
 80040b4:	d9000517 	ldw	r4,20(sp)
        ldw   r5,  24(sp)
 80040b8:	d9400617 	ldw	r5,24(sp)
        ldw   r6,  28(sp)
 80040bc:	d9800717 	ldw	r6,28(sp)
        ldw   r7,  32(sp)
 80040c0:	d9c00817 	ldw	r7,32(sp)

#ifdef ALT_EXCEPTION_STACK
#ifdef ALT_STACK_CHECK
        ldw   et, %gprel(alt_exception_old_stack_limit)(gp)
#endif
#endif

        ldw   r8,  36(sp)
 80040c4:	da000917 	ldw	r8,36(sp)
        ldw   r9,  40(sp)
 80040c8:	da400a17 	ldw	r9,40(sp)
        ldw   r10, 44(sp)
 80040cc:	da800b17 	ldw	r10,44(sp)
        ldw   r11, 48(sp)
 80040d0:	dac00c17 	ldw	r11,48(sp)
        ldw   r12, 52(sp)
 80040d4:	db000d17 	ldw	r12,52(sp)
        ldw   r13, 56(sp)
 80040d8:	db400e17 	ldw	r13,56(sp)
        ldw   r14, 60(sp)
 80040dc:	db800f17 	ldw	r14,60(sp)
        ldw   r15, 64(sp)
 80040e0:	dbc01017 	ldw	r15,64(sp)

#ifdef ALT_EXCEPTION_STACK

#ifdef ALT_STACK_CHECK
        stw   et, %gprel(alt_stack_limit_value)(gp)
        stw   zero, %gprel(alt_exception_old_stack_limit)(gp)
#endif

        ldw   sp,  76(sp)

#else
        addi  sp, sp, 76
 80040e4:	dec01304 	addi	sp,sp,76

#endif

        /*
         * Return to the interrupted instruction.
         */

        eret
 80040e8:	ef80083a 	eret

080040ec <alt_irq_handler>:
 */

void alt_irq_handler (void) __attribute__ ((section (".exceptions")));
void alt_irq_handler (void)
{
 80040ec:	defff904 	addi	sp,sp,-28
 80040f0:	dfc00615 	stw	ra,24(sp)
 80040f4:	df000515 	stw	fp,20(sp)
 80040f8:	df000504 	addi	fp,sp,20
 80040fc:	0005313a 	rdctl	r2,ipending
 8004100:	e0bfff15 	stw	r2,-4(fp)
 8004104:	e0bfff17 	ldw	r2,-4(fp)
 8004108:	e0bffe15 	stw	r2,-8(fp)
 800410c:	e0bffe17 	ldw	r2,-8(fp)
 8004110:	e0bffb15 	stw	r2,-20(fp)
#ifdef ALT_CI_INTERRUPT_VECTOR
  alt_32 offset;
  char*  alt_irq_base = (char*)alt_irq;
#else
  alt_u32 active;
  alt_u32 mask;
  alt_u32 i;
#endif /* ALT_CI_INTERRUPT_VECTOR */
  
  /*
   * Notify the operating system that we are at interrupt level.
   */ 
  
  ALT_OS_INT_ENTER();

#ifdef ALT_CI_INTERRUPT_VECTOR
  /*
   * Call the interrupt vector custom instruction using the 
   * ALT_CI_INTERRUPT_VECTOR macro.
   * It returns the offset into the vector table of the lowest-valued pending
   * interrupt (corresponds to highest priority) or a negative value if none.
   * The custom instruction assumes that each table entry is eight bytes.
   */
  while ((offset = ALT_CI_INTERRUPT_VECTOR) >= 0) {
    struct ALT_IRQ_HANDLER* handler_entry = 
      (struct ALT_IRQ_HANDLER*)(alt_irq_base + offset);
#ifdef ALT_ENHANCED_INTERRUPT_API_PRESENT
    handler_entry->handler(handler_entry->context);
#else
    handler_entry->handler(handler_entry->context, offset >> 3);
#endif
  }
#else /* ALT_CI_INTERRUPT_VECTOR */
  /* 
   * Obtain from the interrupt controller a bit list of pending interrupts,
   * and then process the highest priority interrupt. This process loops, 
   * loading the active interrupt list on each pass until alt_irq_pending() 
   * return zero.
   * 
   * The maximum interrupt latency for the highest priority interrupt is
   * reduced by finding out which interrupts are pending as late as possible.
   * Consider the case where the high priority interupt is asserted during
   * the interrupt entry sequence for a lower priority interrupt to see why
   * this is the case.
   */

  active = alt_irq_pending ();

  do
  {
    i = 0;
 8004114:	e03ffd15 	stw	zero,-12(fp)
    mask = 1;
 8004118:	00800044 	movi	r2,1
 800411c:	e0bffc15 	stw	r2,-16(fp)

    /*
     * Test each bit in turn looking for an active interrupt. Once one is 
     * found, the interrupt handler asigned by a call to alt_irq_register() is
     * called to clear the interrupt condition.
     */

    do
    {
      if (active & mask)
 8004120:	e0fffb17 	ldw	r3,-20(fp)
 8004124:	e0bffc17 	ldw	r2,-16(fp)
 8004128:	1884703a 	and	r2,r3,r2
 800412c:	1005003a 	cmpeq	r2,r2,zero
 8004130:	10000f1e 	bne	r2,zero,8004170 <alt_irq_handler+0x84>
      { 
#ifdef ALT_ENHANCED_INTERRUPT_API_PRESENT
        alt_irq[i].handler(alt_irq[i].context); 
 8004134:	00c100b4 	movhi	r3,1026
 8004138:	18eb5a04 	addi	r3,r3,-21144
 800413c:	e0bffd17 	ldw	r2,-12(fp)
 8004140:	10800224 	muli	r2,r2,8
 8004144:	10c9883a 	add	r4,r2,r3
 8004148:	00c100b4 	movhi	r3,1026
 800414c:	18eb5a04 	addi	r3,r3,-21144
 8004150:	e0bffd17 	ldw	r2,-12(fp)
 8004154:	10800224 	muli	r2,r2,8
 8004158:	10c5883a 	add	r2,r2,r3
 800415c:	10800104 	addi	r2,r2,4
 8004160:	20c00017 	ldw	r3,0(r4)
 8004164:	11000017 	ldw	r4,0(r2)
 8004168:	183ee83a 	callr	r3
#else
        alt_irq[i].handler(alt_irq[i].context, i); 
#endif
        break;
 800416c:	00000706 	br	800418c <alt_irq_handler+0xa0>
      }
      mask <<= 1;
 8004170:	e0bffc17 	ldw	r2,-16(fp)
 8004174:	1085883a 	add	r2,r2,r2
 8004178:	e0bffc15 	stw	r2,-16(fp)
      i++;
 800417c:	e0bffd17 	ldw	r2,-12(fp)
 8004180:	10800044 	addi	r2,r2,1
 8004184:	e0bffd15 	stw	r2,-12(fp)

    } while (1);
 8004188:	003fe506 	br	8004120 <alt_irq_handler+0x34>
 800418c:	0005313a 	rdctl	r2,ipending
 8004190:	e0bffe15 	stw	r2,-8(fp)
 8004194:	e0bffe17 	ldw	r2,-8(fp)
 8004198:	e0bfff15 	stw	r2,-4(fp)
 800419c:	e0bfff17 	ldw	r2,-4(fp)
 80041a0:	e0bffb15 	stw	r2,-20(fp)

    active = alt_irq_pending ();
    
  } while (active);
 80041a4:	e0bffb17 	ldw	r2,-20(fp)
 80041a8:	1005003a 	cmpeq	r2,r2,zero
 80041ac:	1000011e 	bne	r2,zero,80041b4 <alt_irq_handler+0xc8>
 80041b0:	003fd806 	br	8004114 <alt_irq_handler+0x28>
#endif /* ALT_CI_INTERRUPT_VECTOR */

  /*
   * Notify the operating system that interrupt processing is complete.
   */ 

  ALT_OS_INT_EXIT();
}
 80041b4:	dfc00617 	ldw	ra,24(sp)
 80041b8:	df000517 	ldw	fp,20(sp)
 80041bc:	dec00704 	addi	sp,sp,28
 80041c0:	f800283a 	ret
Disassembly of section .text:

040001a4 <_start>:

    .size __reset, . - __reset
#endif /* Jump to _start */

/*
 * When not using exit, provide an _exit symbol to prevent unresolved
 * references to _exit from the linker script.
 */
#ifdef ALT_NO_EXIT
    .globl _exit
_exit:
#endif

/*************************************************************************\
|                          TEXT SECTION (.text)                           |
\*************************************************************************/

/*
 * Start of the .text section, and also the code entry point when
 * the code is executed by a bootloader rather than directly from reset.
 */
    .section .text
    .align 2

    .globl _start
    .type _start, @function
_start:

/*
 * Initialize the data cache if present (i.e. size > 0) and not
 * optimizing for RTL simulation.
 * RTL simulations can ensure the data cache is already initialized
 * so skipping this loop speeds up RTL simulation.
 */

#if NIOS2_DCACHE_SIZE > 0 && !defined(ALT_SIM_OPTIMIZE)

    /* Assume the data cache size is always a power of two. */
#if NIOS2_DCACHE_SIZE > 0x8000
    movhi r2, %hi(NIOS2_DCACHE_SIZE)
#else
    movui r2, NIOS2_DCACHE_SIZE
#endif

0:
    initd 0(r2)
    addi r2, r2, -NIOS2_DCACHE_LINE_SIZE
    bgt r2, zero, 0b
1:

    /*
     * The following debug information tells the ISS not to run the loop above
     * but to perform its actions using faster internal code.
     */
    .pushsection .debug_alt_sim_info
    .int 2, 1, 0b, 1b
    .popsection

#endif /* Initialize Data Cache */

    /* Log that caches have been initialized. */
    ALT_LOG_PUTS(alt_log_msg_cache)

    /* Log that the stack pointer is about to be setup. */
    ALT_LOG_PUTS(alt_log_msg_stackpointer)

#if (NIOS2_NUM_OF_SHADOW_REG_SETS == 0)    
    /*
     * Now that the caches are initialized, set up the stack pointer.
     * The value provided by the linker is assumed to be correctly aligned.
     */
    movhi sp, %hi(__alt_stack_pointer)
 40001a4:	06c20034 	movhi	sp,2048
    ori sp, sp, %lo(__alt_stack_pointer)
 40001a8:	dec00014 	ori	sp,sp,0

    /* Set up the global pointer. */
    movhi gp, %hi(_gp)
 40001ac:	068100b4 	movhi	gp,1026
    ori gp, gp, %lo(_gp)
 40001b0:	d68a7214 	ori	gp,gp,10696

#else /* NIOS2_NUM_OF_SHADOW_REG_SETS > 0 */

    /*
     * Set up the GP and SP in all shadow register sets.
     */

    /* 
     * Check current register set number, if CPU resets into a shadow register 
     * set, switch register set to 0 by writing zero to SSTATUS register and 
     * execute an ERET instruction that just jumps to the next PC address 
     * (use the NEXTPC instruction to get this).
     */
    
    rdctl r2, status
    
    /* Get the current register set number (STATUS.CRS). */
    andi r3, r2, NIOS2_STATUS_CRS_MSK
    
    /* Skip switch register set if STATUS.CRS is 0.  */
    beq r3, zero, .Lskip_switch_reg_set
    
    .set nobreak
    
    /* Current register set is non-zero, set SSTATUS to 0. */
    mov sstatus, zero
    
    /* Get next pc and store in ea. */
    nextpc ea
    
    /* Point to instruction after eret. */
    addi ea, ea, 8
    
    /* 
     * Execute ERET instruction that just jumps to the next PC address 
     */
    eret
    
.Lskip_switch_reg_set:    
    mov r2, zero
    
    /* Reset STATUS register */
    wrctl status, r2

    movui r3, NIOS2_NUM_OF_SHADOW_REG_SETS
    
    /* Set up the stack pointer in register set 0. */
    movhi sp, %hi(__alt_stack_pointer)
    ori sp, sp, %lo(__alt_stack_pointer)
    
    /* Set up the global pointer in register set 0. */
    movhi gp, %hi(_gp)
    ori gp, gp, %lo(_gp)     

.Lsetup_sp_and_gp_loop:
    /* 
     * Setup GP and SP for shadow register set 
     * from NIOS2_NUM_OF_SHADOW_REG_SETS to 0
     */

    /* Skip if number of register sets is 0. */
    beq r3, zero, .Lno_shadow_register_set


    /* Add previous register set STATUS.PRS by 1 */
    movhi r4, 1
    add r2, r2, r4

    /* Write STATUS */
    wrctl status, r2

    /* Clear r0 in the shadow register set (not done by hardware) */
    wrprs r0, r0

    /* Write the GP in previous register set */
    wrprs gp, gp

    /* Only write the SP in previous register set
     * if using the seperate exception stack. For normal case (single stack),
     * funnel code would read the SP from previous register set.
     */
#ifdef ALT_INTERRUPT_STACK

    movhi et, %hiadj(__alt_interrupt_stack_pointer)
    addi  et, et, %lo(__alt_interrupt_stack_pointer)
    wrprs sp, et

#endif /* ALT_INTERRUPT_STACK */

    /* Decrease number of register set counter by 1 */
    addi r3, r3, -1

    br .Lsetup_sp_and_gp_loop
.Lno_shadow_register_set:

#endif /* NIOS2_NUM_OF_SHADOW_REG_SETS */
/*
 * Clear the BSS if not optimizing for RTL simulation.
 *
 * This uses the symbols: __bss_start and __bss_end, which are defined
 * by the linker script. They mark the begining and the end of the bss
 * region. The linker script guarantees that these values are word aligned.
 */
#ifndef ALT_SIM_OPTIMIZE
    /* Log that the BSS is about to be cleared. */
    ALT_LOG_PUTS(alt_log_msg_bss)

    movhi r2, %hi(__bss_start)
 40001b4:	00810074 	movhi	r2,1025
    ori r2, r2, %lo(__bss_start)
 40001b8:	10aaa514 	ori	r2,r2,43668

    movhi r3, %hi(__bss_end)
 40001bc:	00c10074 	movhi	r3,1025
    ori r3, r3, %lo(__bss_end)
 40001c0:	18ebdd14 	ori	r3,r3,44916

    beq r2, r3, 1f
 40001c4:	10c00326 	beq	r2,r3,40001d4 <_start+0x30>

0:
    stw zero, (r2)
 40001c8:	10000015 	stw	zero,0(r2)
    addi r2, r2, 4
 40001cc:	10800104 	addi	r2,r2,4
    bltu r2, r3, 0b
 40001d0:	10fffd36 	bltu	r2,r3,40001c8 <_start+0x24>

1:

    /*
     * The following debug information tells the ISS not to run the loop above
     * but to perform its actions using faster internal code.
     */
    .pushsection .debug_alt_sim_info
    .int 3, 1, 0b, 1b
    .popsection
#endif /* ALT_SIM_OPTIMIZE */

/*
 * The alt_load() facility is normally used when there is no bootloader.
 * It copies some sections into RAM so it acts like a mini-bootloader.
 */
#ifdef CALL_ALT_LOAD

#ifdef ALT_STACK_CHECK
    /*
     * If the user has selected stack checking then we need to set up a safe
     * value in the stack limit register so that the relocation functions
     * don't think the stack has overflowed (the contents of the rwdata
     * section aren't defined until alt_load() has been called).
     */
    mov   et, zero
#endif

    call alt_load
 40001d4:	40153680 	call	4015368 <alt_load>

#endif /* CALL_ALT_LOAD */

#ifdef ALT_STACK_CHECK
    /*
     * Set up the stack limit (if required).  The linker has set up the
     * copy of the variable which is in memory.
     */

    ldw   et, %gprel(alt_stack_limit_value)(gp)
#endif

    /* Log that alt_main is about to be called. */
    ALT_LOG_PUTS(alt_log_msg_alt_main)

    /* Call the C entry point. It should never return. */
    call alt_main
 40001d8:	40155840 	call	4015584 <alt_main>

040001dc <alt_after_alt_main>:

    /* Wait in infinite loop in case alt_main does return. */
alt_after_alt_main:
    br alt_after_alt_main
 40001dc:	003fff06 	br	40001dc <alt_after_alt_main>

040001e0 <init_Gyro1DKalman>:

           

void init_Gyro1DKalman(struct Gyro1DKalman *filterdata, float Q_angle, float Q_gyro, float R_angle)
{
 40001e0:	defffb04 	addi	sp,sp,-20
 40001e4:	df000415 	stw	fp,16(sp)
 40001e8:	df000404 	addi	fp,sp,16
 40001ec:	e13ffc15 	stw	r4,-16(fp)
 40001f0:	e17ffd15 	stw	r5,-12(fp)
 40001f4:	e1bffe15 	stw	r6,-8(fp)
 40001f8:	e1ffff15 	stw	r7,-4(fp)
    filterdata->Q_angle = Q_angle;
 40001fc:	e0fffc17 	ldw	r3,-16(fp)
 4000200:	e0bffd17 	ldw	r2,-12(fp)
 4000204:	18800615 	stw	r2,24(r3)
    filterdata->Q_gyro  = Q_gyro;
 4000208:	e0fffc17 	ldw	r3,-16(fp)
 400020c:	e0bffe17 	ldw	r2,-8(fp)
 4000210:	18800715 	stw	r2,28(r3)
    filterdata->R_angle = R_angle;
 4000214:	e0fffc17 	ldw	r3,-16(fp)
 4000218:	e0bfff17 	ldw	r2,-4(fp)
 400021c:	18800815 	stw	r2,32(r3)
    filterdata->x_angle = 0;
 4000220:	e0bffc17 	ldw	r2,-16(fp)
 4000224:	10000015 	stw	zero,0(r2)
    filterdata->x_bias = 0;
 4000228:	e0bffc17 	ldw	r2,-16(fp)
 400022c:	10000115 	stw	zero,4(r2)
    filterdata->P_00 = 1;
 4000230:	e0fffc17 	ldw	r3,-16(fp)
 4000234:	008fe034 	movhi	r2,16256
 4000238:	10800004 	addi	r2,r2,0
 400023c:	18800215 	stw	r2,8(r3)
    filterdata->P_01 = 0;
 4000240:	e0bffc17 	ldw	r2,-16(fp)
 4000244:	10000315 	stw	zero,12(r2)
    filterdata->P_10 = 0;
 4000248:	e0bffc17 	ldw	r2,-16(fp)
 400024c:	10000415 	stw	zero,16(r2)
    filterdata->P_11 = 1;
 4000250:	e0fffc17 	ldw	r3,-16(fp)
 4000254:	008fe034 	movhi	r2,16256
 4000258:	10800004 	addi	r2,r2,0
 400025c:	18800515 	stw	r2,20(r3)
}
 4000260:	df000417 	ldw	fp,16(sp)
 4000264:	dec00504 	addi	sp,sp,20
 4000268:	f800283a 	ret

0400026c <ars_predict>:

/*
 * The predict function. Updates 2 variables:
 * our model-state x and the 2x2 matrix P
 *     
 * x = [ angle, bias ]' 
 * 
 *   = F x + B u
 *
 *   = [ 1 -dt, 0 1 ] [ angle, bias ] + [ dt, 0 ] [ dotAngle 0 ]
 *
 *   => angle = angle + dt (dotAngle - bias)
 *      bias  = bias
 *
 *
 * P = F P transpose(F) + Q
 *
 *   = [ 1 -dt, 0 1 ] * P * [ 1 0, -dt 1 ] + Q
 *
 *  P(0,0) = P(0,0) - dt * ( P(1,0) + P(0,1) ) + dt * P(1,1) + Q(0,0)
 *  P(0,1) = P(0,1) - dt * P(1,1) + Q(0,1)
 *  P(1,0) = P(1,0) - dt * P(1,1) + Q(1,0)
 *  P(1,1) = P(1,1) + Q(1,1)
 *
 *
 */
void ars_predict(struct Gyro1DKalman *filterdata, const float dotAngle, const float dt)
{
 400026c:	defff804 	addi	sp,sp,-32
 4000270:	dfc00715 	stw	ra,28(sp)
 4000274:	df000615 	stw	fp,24(sp)
 4000278:	dc000515 	stw	r16,20(sp)
 400027c:	dc400415 	stw	r17,16(sp)
 4000280:	dc800315 	stw	r18,12(sp)
 4000284:	df000604 	addi	fp,sp,24
 4000288:	e13ffa15 	stw	r4,-24(fp)
 400028c:	e17ffb15 	stw	r5,-20(fp)
 4000290:	e1bffc15 	stw	r6,-16(fp)
    filterdata->x_angle += dt * (dotAngle - filterdata->x_bias);
 4000294:	e43ffa17 	ldw	r16,-24(fp)
 4000298:	e47ffa17 	ldw	r17,-24(fp)
 400029c:	e0bffa17 	ldw	r2,-24(fp)
 40002a0:	e13ffb17 	ldw	r4,-20(fp)
 40002a4:	11400117 	ldw	r5,4(r2)
 40002a8:	400b0080 	call	400b008 <__subsf3>
 40002ac:	1009883a 	mov	r4,r2
 40002b0:	e17ffc17 	ldw	r5,-16(fp)
 40002b4:	400b06c0 	call	400b06c <__mulsf3>
 40002b8:	1009883a 	mov	r4,r2
 40002bc:	89400017 	ldw	r5,0(r17)
 40002c0:	400afb00 	call	400afb0 <__addsf3>
 40002c4:	80800015 	stw	r2,0(r16)

    filterdata->P_00 +=  - dt * (filterdata->P_10 + filterdata->P_01) + filterdata->Q_angle * dt;
 40002c8:	e47ffa17 	ldw	r17,-24(fp)
 40002cc:	e4bffa17 	ldw	r18,-24(fp)
 40002d0:	e0bffc17 	ldw	r2,-16(fp)
 40002d4:	10a0003c 	xorhi	r2,r2,32768
 40002d8:	1021883a 	mov	r16,r2
 40002dc:	e0bffa17 	ldw	r2,-24(fp)
 40002e0:	e0fffa17 	ldw	r3,-24(fp)
 40002e4:	11000417 	ldw	r4,16(r2)
 40002e8:	19400317 	ldw	r5,12(r3)
 40002ec:	400afb00 	call	400afb0 <__addsf3>
 40002f0:	8009883a 	mov	r4,r16
 40002f4:	100b883a 	mov	r5,r2
 40002f8:	400b06c0 	call	400b06c <__mulsf3>
 40002fc:	1021883a 	mov	r16,r2
 4000300:	e0bffa17 	ldw	r2,-24(fp)
 4000304:	11000617 	ldw	r4,24(r2)
 4000308:	e17ffc17 	ldw	r5,-16(fp)
 400030c:	400b06c0 	call	400b06c <__mulsf3>
 4000310:	8009883a 	mov	r4,r16
 4000314:	100b883a 	mov	r5,r2
 4000318:	400afb00 	call	400afb0 <__addsf3>
 400031c:	1009883a 	mov	r4,r2
 4000320:	91400217 	ldw	r5,8(r18)
 4000324:	400afb00 	call	400afb0 <__addsf3>
 4000328:	88800215 	stw	r2,8(r17)
    filterdata->P_01 +=  - dt * filterdata->P_11;
 400032c:	e47ffa17 	ldw	r17,-24(fp)
 4000330:	e43ffa17 	ldw	r16,-24(fp)
 4000334:	e0bffc17 	ldw	r2,-16(fp)
 4000338:	10a0003c 	xorhi	r2,r2,32768
 400033c:	e0fffa17 	ldw	r3,-24(fp)
 4000340:	1009883a 	mov	r4,r2
 4000344:	19400517 	ldw	r5,20(r3)
 4000348:	400b06c0 	call	400b06c <__mulsf3>
 400034c:	1009883a 	mov	r4,r2
 4000350:	81400317 	ldw	r5,12(r16)
 4000354:	400afb00 	call	400afb0 <__addsf3>
 4000358:	88800315 	stw	r2,12(r17)
    filterdata->P_10 +=  - dt * filterdata->P_11;
 400035c:	e47ffa17 	ldw	r17,-24(fp)
 4000360:	e43ffa17 	ldw	r16,-24(fp)
 4000364:	e0bffc17 	ldw	r2,-16(fp)
 4000368:	10a0003c 	xorhi	r2,r2,32768
 400036c:	e0fffa17 	ldw	r3,-24(fp)
 4000370:	1009883a 	mov	r4,r2
 4000374:	19400517 	ldw	r5,20(r3)
 4000378:	400b06c0 	call	400b06c <__mulsf3>
 400037c:	1009883a 	mov	r4,r2
 4000380:	81400417 	ldw	r5,16(r16)
 4000384:	400afb00 	call	400afb0 <__addsf3>
 4000388:	88800415 	stw	r2,16(r17)
    filterdata->P_11 +=  + filterdata->Q_gyro * dt;
 400038c:	e47ffa17 	ldw	r17,-24(fp)
 4000390:	e43ffa17 	ldw	r16,-24(fp)
 4000394:	e0bffa17 	ldw	r2,-24(fp)
 4000398:	11000717 	ldw	r4,28(r2)
 400039c:	e17ffc17 	ldw	r5,-16(fp)
 40003a0:	400b06c0 	call	400b06c <__mulsf3>
 40003a4:	1009883a 	mov	r4,r2
 40003a8:	81400517 	ldw	r5,20(r16)
 40003ac:	400afb00 	call	400afb0 <__addsf3>
 40003b0:	88800515 	stw	r2,20(r17)
}
 40003b4:	dfc00717 	ldw	ra,28(sp)
 40003b8:	df000617 	ldw	fp,24(sp)
 40003bc:	dc000517 	ldw	r16,20(sp)
 40003c0:	dc400417 	ldw	r17,16(sp)
 40003c4:	dc800317 	ldw	r18,12(sp)
 40003c8:	dec00804 	addi	sp,sp,32
 40003cc:	f800283a 	ret

040003d0 <ars_update>:

/*
 *  The update function updates our model using 
 *  the information from a 2nd measurement.
 *  Input angle_m is the angle measured by the accelerometer.
 *
 *  y = z - H x
 *
 *  S = H P transpose(H) + R
 *    = [ 1 0 ] P [ 1, 0 ] + R
 *    = P(0,0) + R
 * 
 *  K = P transpose(H) S^-1
 *    = [ P(0,0), P(1,0) ] / S
 *
 *  x = x + K y
 *
 *  P = (I - K H) P
 *
 *    = ( [ 1 0,    [ K(0),
 *          0 1 ] -   K(1) ] * [ 1 0 ] ) P
 *
 *    = [ P(0,0)-P(0,0)*K(0)  P(0,1)-P(0,1)*K(0),
 *        P(1,0)-P(0,0)*K(1)  P(1,1)-P(0,1)*K(1) ]
 */
float ars_update(struct Gyro1DKalman *filterdata, const float angle_m)
{
 40003d0:	defff604 	addi	sp,sp,-40
 40003d4:	dfc00915 	stw	ra,36(sp)
 40003d8:	df000815 	stw	fp,32(sp)
 40003dc:	dc000715 	stw	r16,28(sp)
 40003e0:	dc400615 	stw	r17,24(sp)
 40003e4:	df000804 	addi	fp,sp,32
 40003e8:	e13ff815 	stw	r4,-32(fp)
 40003ec:	e17ff915 	stw	r5,-28(fp)
    const float y = angle_m - filterdata->x_angle;
 40003f0:	e0bff817 	ldw	r2,-32(fp)
 40003f4:	e13ff917 	ldw	r4,-28(fp)
 40003f8:	11400017 	ldw	r5,0(r2)
 40003fc:	400b0080 	call	400b008 <__subsf3>
 4000400:	e0bffa15 	stw	r2,-24(fp)
    
    const float S = filterdata->P_00 + filterdata->R_angle;
 4000404:	e0bff817 	ldw	r2,-32(fp)
 4000408:	e0fff817 	ldw	r3,-32(fp)
 400040c:	11000217 	ldw	r4,8(r2)
 4000410:	19400817 	ldw	r5,32(r3)
 4000414:	400afb00 	call	400afb0 <__addsf3>
 4000418:	e0bffb15 	stw	r2,-20(fp)
    const float K_0 = filterdata->P_00 / S;
 400041c:	e0bff817 	ldw	r2,-32(fp)
 4000420:	11000217 	ldw	r4,8(r2)
 4000424:	e17ffb17 	ldw	r5,-20(fp)
 4000428:	400b2300 	call	400b230 <__divsf3>
 400042c:	e0bffc15 	stw	r2,-16(fp)
    const float K_1 = filterdata->P_10 / S;
 4000430:	e0bff817 	ldw	r2,-32(fp)
 4000434:	11000417 	ldw	r4,16(r2)
 4000438:	e17ffb17 	ldw	r5,-20(fp)
 400043c:	400b2300 	call	400b230 <__divsf3>
 4000440:	e0bffd15 	stw	r2,-12(fp)
    
    filterdata->x_angle +=  K_0 * y;
 4000444:	e43ff817 	ldw	r16,-32(fp)
 4000448:	e47ff817 	ldw	r17,-32(fp)
 400044c:	e13ffc17 	ldw	r4,-16(fp)
 4000450:	e17ffa17 	ldw	r5,-24(fp)
 4000454:	400b06c0 	call	400b06c <__mulsf3>
 4000458:	1009883a 	mov	r4,r2
 400045c:	89400017 	ldw	r5,0(r17)
 4000460:	400afb00 	call	400afb0 <__addsf3>
 4000464:	80800015 	stw	r2,0(r16)
    filterdata->x_bias  +=  K_1 * y;
 4000468:	e43ff817 	ldw	r16,-32(fp)
 400046c:	e47ff817 	ldw	r17,-32(fp)
 4000470:	e13ffd17 	ldw	r4,-12(fp)
 4000474:	e17ffa17 	ldw	r5,-24(fp)
 4000478:	400b06c0 	call	400b06c <__mulsf3>
 400047c:	1009883a 	mov	r4,r2
 4000480:	89400117 	ldw	r5,4(r17)
 4000484:	400afb00 	call	400afb0 <__addsf3>
 4000488:	80800115 	stw	r2,4(r16)
    
    filterdata->P_00 -= K_0 * filterdata->P_00;
 400048c:	e47ff817 	ldw	r17,-32(fp)
 4000490:	e43ff817 	ldw	r16,-32(fp)
 4000494:	e0bff817 	ldw	r2,-32(fp)
 4000498:	11000217 	ldw	r4,8(r2)
 400049c:	e17ffc17 	ldw	r5,-16(fp)
 40004a0:	400b06c0 	call	400b06c <__mulsf3>
 40004a4:	81000217 	ldw	r4,8(r16)
 40004a8:	100b883a 	mov	r5,r2
 40004ac:	400b0080 	call	400b008 <__subsf3>
 40004b0:	88800215 	stw	r2,8(r17)
    filterdata->P_01 -= K_0 * filterdata->P_01;
 40004b4:	e47ff817 	ldw	r17,-32(fp)
 40004b8:	e43ff817 	ldw	r16,-32(fp)
 40004bc:	e0bff817 	ldw	r2,-32(fp)
 40004c0:	11000317 	ldw	r4,12(r2)
 40004c4:	e17ffc17 	ldw	r5,-16(fp)
 40004c8:	400b06c0 	call	400b06c <__mulsf3>
 40004cc:	81000317 	ldw	r4,12(r16)
 40004d0:	100b883a 	mov	r5,r2
 40004d4:	400b0080 	call	400b008 <__subsf3>
 40004d8:	88800315 	stw	r2,12(r17)
    filterdata->P_10 -= K_1 * filterdata->P_00;
 40004dc:	e47ff817 	ldw	r17,-32(fp)
 40004e0:	e43ff817 	ldw	r16,-32(fp)
 40004e4:	e0bff817 	ldw	r2,-32(fp)
 40004e8:	11000217 	ldw	r4,8(r2)
 40004ec:	e17ffd17 	ldw	r5,-12(fp)
 40004f0:	400b06c0 	call	400b06c <__mulsf3>
 40004f4:	81000417 	ldw	r4,16(r16)
 40004f8:	100b883a 	mov	r5,r2
 40004fc:	400b0080 	call	400b008 <__subsf3>
 4000500:	88800415 	stw	r2,16(r17)
    filterdata->P_11 -= K_1 * filterdata->P_01;
 4000504:	e47ff817 	ldw	r17,-32(fp)
 4000508:	e43ff817 	ldw	r16,-32(fp)
 400050c:	e0bff817 	ldw	r2,-32(fp)
 4000510:	11000317 	ldw	r4,12(r2)
 4000514:	e17ffd17 	ldw	r5,-12(fp)
 4000518:	400b06c0 	call	400b06c <__mulsf3>
 400051c:	81000517 	ldw	r4,20(r16)
 4000520:	100b883a 	mov	r5,r2
 4000524:	400b0080 	call	400b008 <__subsf3>
 4000528:	88800515 	stw	r2,20(r17)
    
    return filterdata->x_angle;
 400052c:	e0bff817 	ldw	r2,-32(fp)
 4000530:	10800017 	ldw	r2,0(r2)
}
 4000534:	dfc00917 	ldw	ra,36(sp)
 4000538:	df000817 	ldw	fp,32(sp)
 400053c:	dc000717 	ldw	r16,28(sp)
 4000540:	dc400617 	ldw	r17,24(sp)
 4000544:	dec00a04 	addi	sp,sp,40
 4000548:	f800283a 	ret

0400054c <initControls>:
#include <system.h>
#include "altera_avalon_pio_regs.h"
#include "controls.h"

void initControls(){
 400054c:	defffe04 	addi	sp,sp,-8
 4000550:	dfc00115 	stw	ra,4(sp)
 4000554:	df000015 	stw	fp,0(sp)
 4000558:	d839883a 	mov	fp,sp
	setThrottle(0);
 400055c:	0009883a 	mov	r4,zero
 4000560:	40005940 	call	4000594 <setThrottle>
	setAileron(50);
 4000564:	01000c84 	movi	r4,50
 4000568:	40005c80 	call	40005c8 <setAileron>
	setRudder(50);
 400056c:	01000c84 	movi	r4,50
 4000570:	40005fc0 	call	40005fc <setRudder>
	setElevator(50);
 4000574:	01000c84 	movi	r4,50
 4000578:	40006300 	call	4000630 <setElevator>
	setGear(1);
 400057c:	01000044 	movi	r4,1
 4000580:	40006640 	call	4000664 <setGear>

}
 4000584:	dfc00117 	ldw	ra,4(sp)
 4000588:	df000017 	ldw	fp,0(sp)
 400058c:	dec00204 	addi	sp,sp,8
 4000590:	f800283a 	ret

04000594 <setThrottle>:
void setThrottle(int throttleSet){
 4000594:	defffe04 	addi	sp,sp,-8
 4000598:	df000115 	stw	fp,4(sp)
 400059c:	df000104 	addi	fp,sp,4
 40005a0:	e13fff15 	stw	r4,-4(fp)
	throttleSet = throttleSet*200;
 40005a4:	e0bfff17 	ldw	r2,-4(fp)
 40005a8:	10803224 	muli	r2,r2,200
 40005ac:	e0bfff15 	stw	r2,-4(fp)
	IOWR_ALTERA_AVALON_PIO_DATA( PIO_THRO_BASE,throttleSet );
 40005b0:	00c42c04 	movi	r3,4272
 40005b4:	e0bfff17 	ldw	r2,-4(fp)
 40005b8:	18800035 	stwio	r2,0(r3)
}
 40005bc:	df000117 	ldw	fp,4(sp)
 40005c0:	dec00204 	addi	sp,sp,8
 40005c4:	f800283a 	ret

040005c8 <setAileron>:
void setAileron(int aileronSet){
 40005c8:	defffe04 	addi	sp,sp,-8
 40005cc:	df000115 	stw	fp,4(sp)
 40005d0:	df000104 	addi	fp,sp,4
 40005d4:	e13fff15 	stw	r4,-4(fp)
	aileronSet = aileronSet*200;
 40005d8:	e0bfff17 	ldw	r2,-4(fp)
 40005dc:	10803224 	muli	r2,r2,200
 40005e0:	e0bfff15 	stw	r2,-4(fp)
	IOWR_ALTERA_AVALON_PIO_DATA( PIO_AILE_BASE,aileronSet );
 40005e4:	00c43004 	movi	r3,4288
 40005e8:	e0bfff17 	ldw	r2,-4(fp)
 40005ec:	18800035 	stwio	r2,0(r3)
}
 40005f0:	df000117 	ldw	fp,4(sp)
 40005f4:	dec00204 	addi	sp,sp,8
 40005f8:	f800283a 	ret

040005fc <setRudder>:
void setRudder(int rudderSet){
 40005fc:	defffe04 	addi	sp,sp,-8
 4000600:	df000115 	stw	fp,4(sp)
 4000604:	df000104 	addi	fp,sp,4
 4000608:	e13fff15 	stw	r4,-4(fp)
	rudderSet = rudderSet*200;
 400060c:	e0bfff17 	ldw	r2,-4(fp)
 4000610:	10803224 	muli	r2,r2,200
 4000614:	e0bfff15 	stw	r2,-4(fp)
	IOWR_ALTERA_AVALON_PIO_DATA( PIO_RUDD_BASE,rudderSet );
 4000618:	00c43804 	movi	r3,4320
 400061c:	e0bfff17 	ldw	r2,-4(fp)
 4000620:	18800035 	stwio	r2,0(r3)
}
 4000624:	df000117 	ldw	fp,4(sp)
 4000628:	dec00204 	addi	sp,sp,8
 400062c:	f800283a 	ret

04000630 <setElevator>:
void setElevator(int elevatorSet){
 4000630:	defffe04 	addi	sp,sp,-8
 4000634:	df000115 	stw	fp,4(sp)
 4000638:	df000104 	addi	fp,sp,4
 400063c:	e13fff15 	stw	r4,-4(fp)
	elevatorSet = elevatorSet*200;
 4000640:	e0bfff17 	ldw	r2,-4(fp)
 4000644:	10803224 	muli	r2,r2,200
 4000648:	e0bfff15 	stw	r2,-4(fp)
	IOWR_ALTERA_AVALON_PIO_DATA( PIO_ELEV_BASE,elevatorSet );
 400064c:	00c43404 	movi	r3,4304
 4000650:	e0bfff17 	ldw	r2,-4(fp)
 4000654:	18800035 	stwio	r2,0(r3)
}
 4000658:	df000117 	ldw	fp,4(sp)
 400065c:	dec00204 	addi	sp,sp,8
 4000660:	f800283a 	ret

04000664 <setGear>:
void setGear(int gearSet){
 4000664:	defffe04 	addi	sp,sp,-8
 4000668:	df000115 	stw	fp,4(sp)
 400066c:	df000104 	addi	fp,sp,4
 4000670:	e13fff15 	stw	r4,-4(fp)
	if(gearSet ==1){
 4000674:	e0bfff17 	ldw	r2,-4(fp)
 4000678:	10800058 	cmpnei	r2,r2,1
 400067c:	1000031e 	bne	r2,zero,400068c <setGear+0x28>
		gearSet = 20000;
 4000680:	00938804 	movi	r2,20000
 4000684:	e0bfff15 	stw	r2,-4(fp)
 4000688:	00000106 	br	4000690 <setGear+0x2c>
	}else{
		gearSet = 0;
 400068c:	e03fff15 	stw	zero,-4(fp)
	}
	IOWR_ALTERA_AVALON_PIO_DATA( PIO_GEAR_BASE,gearSet );
 4000690:	00c43c04 	movi	r3,4336
 4000694:	e0bfff17 	ldw	r2,-4(fp)
 4000698:	18800035 	stwio	r2,0(r3)
}
 400069c:	df000117 	ldw	fp,4(sp)
 40006a0:	dec00204 	addi	sp,sp,8
 40006a4:	f800283a 	ret

040006a8 <setZero>:
 TYPES
 ---------------------------------------------------------*/

//Sets everything in the struct to zero
void setZero(struct MCTPIDERR *pid) {
 40006a8:	defffc04 	addi	sp,sp,-16
 40006ac:	dfc00315 	stw	ra,12(sp)
 40006b0:	df000215 	stw	fp,8(sp)
 40006b4:	dc000115 	stw	r16,4(sp)
 40006b8:	df000204 	addi	fp,sp,8
 40006bc:	e13ffe15 	stw	r4,-8(fp)
    pid->preverr=0;
 40006c0:	e0bffe17 	ldw	r2,-8(fp)
 40006c4:	10000115 	stw	zero,4(r2)
    pid->err = 0;
 40006c8:	e0bffe17 	ldw	r2,-8(fp)
 40006cc:	10000015 	stw	zero,0(r2)
    pid->prevD = 0;
 40006d0:	e0bffe17 	ldw	r2,-8(fp)
 40006d4:	10000315 	stw	zero,12(r2)
    pid->prevI = 0;
 40006d8:	e0bffe17 	ldw	r2,-8(fp)
 40006dc:	10000215 	stw	zero,8(r2)
    pid->mark = alt_timestamp_start();
 40006e0:	e43ffe17 	ldw	r16,-8(fp)
 40006e4:	40169700 	call	4016970 <alt_timestamp_start>
 40006e8:	80800515 	stw	r2,20(r16)
    //If the timestamp is not available print this out
    if (pid->mark < 0) {
    	printf("No timestamp device available\n");
    }
}
 40006ec:	dfc00317 	ldw	ra,12(sp)
 40006f0:	df000217 	ldw	fp,8(sp)
 40006f4:	dc000117 	ldw	r16,4(sp)
 40006f8:	dec00404 	addi	sp,sp,16
 40006fc:	f800283a 	ret

04000700 <convert>:
/*
 * Convert IMU data to useful units
 */
float convert(alt_16 data, int type){
 4000700:	defffa04 	addi	sp,sp,-24
 4000704:	dfc00515 	stw	ra,20(sp)
 4000708:	df000415 	stw	fp,16(sp)
 400070c:	df000404 	addi	fp,sp,16
 4000710:	e17ffd15 	stw	r5,-12(fp)
 4000714:	e13ffc0d 	sth	r4,-16(fp)
	switch(type){
 4000718:	e0bffd17 	ldw	r2,-12(fp)
 400071c:	e0bfff15 	stw	r2,-4(fp)
 4000720:	e0ffff17 	ldw	r3,-4(fp)
 4000724:	188000a0 	cmpeqi	r2,r3,2
 4000728:	1000161e 	bne	r2,zero,4000784 <convert+0x84>
 400072c:	e0ffff17 	ldw	r3,-4(fp)
 4000730:	188000c8 	cmpgei	r2,r3,3
 4000734:	1000041e 	bne	r2,zero,4000748 <convert+0x48>
 4000738:	e0ffff17 	ldw	r3,-4(fp)
 400073c:	18800060 	cmpeqi	r2,r3,1
 4000740:	1000081e 	bne	r2,zero,4000764 <convert+0x64>
 4000744:	00004706 	br	4000864 <convert+0x164>
 4000748:	e0ffff17 	ldw	r3,-4(fp)
 400074c:	188000e0 	cmpeqi	r2,r3,3
 4000750:	1000201e 	bne	r2,zero,40007d4 <convert+0xd4>
 4000754:	e0ffff17 	ldw	r3,-4(fp)
 4000758:	18800120 	cmpeqi	r2,r3,4
 400075c:	1000251e 	bne	r2,zero,40007f4 <convert+0xf4>
 4000760:	00004006 	br	4000864 <convert+0x164>
		//Convert gyro data to degrees per second
		case 1:
			return (float)data/20.0;
 4000764:	e13ffc0f 	ldh	r4,-16(fp)
 4000768:	400b4680 	call	400b468 <__floatsisf>
 400076c:	1009883a 	mov	r4,r2
 4000770:	01506834 	movhi	r5,16800
 4000774:	29400004 	addi	r5,r5,0
 4000778:	400b2300 	call	400b230 <__divsf3>
 400077c:	e0bffe15 	stw	r2,-8(fp)
 4000780:	00003b06 	br	4000870 <convert+0x170>
		//Convert accel data to ???
		case 2:
			return (float)data * (3.33/1000.0);
 4000784:	e13ffc0f 	ldh	r4,-16(fp)
 4000788:	400b4680 	call	400b468 <__floatsisf>
 400078c:	1009883a 	mov	r4,r2
 4000790:	400b5940 	call	400b594 <__extendsfdf2>
 4000794:	100b883a 	mov	r5,r2
 4000798:	180d883a 	mov	r6,r3
 400079c:	2809883a 	mov	r4,r5
 40007a0:	300b883a 	mov	r5,r6
 40007a4:	0188c434 	movhi	r6,8976
 40007a8:	31b3e044 	addi	r6,r6,-12415
 40007ac:	01cfdaf4 	movhi	r7,16235
 40007b0:	39d1e104 	addi	r7,r7,18308
 40007b4:	400b9f00 	call	400b9f0 <__muldf3>
 40007b8:	100b883a 	mov	r5,r2
 40007bc:	180d883a 	mov	r6,r3
 40007c0:	2809883a 	mov	r4,r5
 40007c4:	300b883a 	mov	r5,r6
 40007c8:	400c4bc0 	call	400c4bc <__truncdfsf2>
 40007cc:	e0bffe15 	stw	r2,-8(fp)
 40007d0:	00002706 	br	4000870 <convert+0x170>
		//Convert magnetometer data to ??
		case 3:
			return (float)data/2000.0;
 40007d4:	e13ffc0f 	ldh	r4,-16(fp)
 40007d8:	400b4680 	call	400b468 <__floatsisf>
 40007dc:	1009883a 	mov	r4,r2
 40007e0:	01513eb4 	movhi	r5,17658
 40007e4:	29400004 	addi	r5,r5,0
 40007e8:	400b2300 	call	400b230 <__divsf3>
 40007ec:	e0bffe15 	stw	r2,-8(fp)
 40007f0:	00001f06 	br	4000870 <convert+0x170>
		//Convert gyro data to radians per second
		case 4:
			return (float)data/20.0 * (3.1416/180);
 40007f4:	e13ffc0f 	ldh	r4,-16(fp)
 40007f8:	400b4680 	call	400b468 <__floatsisf>
 40007fc:	1009883a 	mov	r4,r2
 4000800:	400b5940 	call	400b594 <__extendsfdf2>
 4000804:	100b883a 	mov	r5,r2
 4000808:	180d883a 	mov	r6,r3
 400080c:	2809883a 	mov	r4,r5
 4000810:	300b883a 	mov	r5,r6
 4000814:	000d883a 	mov	r6,zero
 4000818:	01d00d34 	movhi	r7,16436
 400081c:	39c00004 	addi	r7,r7,0
 4000820:	400bdf00 	call	400bdf0 <__divdf3>
 4000824:	100b883a 	mov	r5,r2
 4000828:	180d883a 	mov	r6,r3
 400082c:	2809883a 	mov	r4,r5
 4000830:	300b883a 	mov	r5,r6
 4000834:	0197dfb4 	movhi	r6,24446
 4000838:	31b35104 	addi	r6,r6,-12988
 400083c:	01cfe4b4 	movhi	r7,16274
 4000840:	39f7d244 	addi	r7,r7,-8375
 4000844:	400b9f00 	call	400b9f0 <__muldf3>
 4000848:	100b883a 	mov	r5,r2
 400084c:	180d883a 	mov	r6,r3
 4000850:	2809883a 	mov	r4,r5
 4000854:	300b883a 	mov	r5,r6
 4000858:	400c4bc0 	call	400c4bc <__truncdfsf2>
 400085c:	e0bffe15 	stw	r2,-8(fp)
 4000860:	00000306 	br	4000870 <convert+0x170>
	}
	//failure
	return 1000.0;
 4000864:	00911eb4 	movhi	r2,17530
 4000868:	10800004 	addi	r2,r2,0
 400086c:	e0bffe15 	stw	r2,-8(fp)
}
 4000870:	e0bffe17 	ldw	r2,-8(fp)
 4000874:	dfc00517 	ldw	ra,20(sp)
 4000878:	df000417 	ldw	fp,16(sp)
 400087c:	dec00604 	addi	sp,sp,24
 4000880:	f800283a 	ret

04000884 <initializeToZero>:
//Initializes all structs by setting them to zero
void initializeToZero(){
 4000884:	defffe04 	addi	sp,sp,-8
 4000888:	dfc00115 	stw	ra,4(sp)
 400088c:	df000015 	stw	fp,0(sp)
 4000890:	d839883a 	mov	fp,sp
	//Set all the errors to 0
	setZero(&errAlt);
 4000894:	010100b4 	movhi	r4,1026
 4000898:	212b4504 	addi	r4,r4,-21228
 400089c:	40006a80 	call	40006a8 <setZero>
	setZero(&errLat);
 40008a0:	010100b4 	movhi	r4,1026
 40008a4:	212b3404 	addi	r4,r4,-21296
 40008a8:	40006a80 	call	40006a8 <setZero>
	setZero(&errLong);
 40008ac:	010100b4 	movhi	r4,1026
 40008b0:	212b0a04 	addi	r4,r4,-21464
 40008b4:	40006a80 	call	40006a8 <setZero>
	setZero(&errPitch);
 40008b8:	010100b4 	movhi	r4,1026
 40008bc:	212b1004 	addi	r4,r4,-21440
 40008c0:	40006a80 	call	40006a8 <setZero>
	setZero(&errYaw);
 40008c4:	010100b4 	movhi	r4,1026
 40008c8:	212b1604 	addi	r4,r4,-21416
 40008cc:	40006a80 	call	40006a8 <setZero>
	setZero(&errRoll);
 40008d0:	010100b4 	movhi	r4,1026
 40008d4:	212b3f04 	addi	r4,r4,-21252
 40008d8:	40006a80 	call	40006a8 <setZero>
}
 40008dc:	dfc00117 	ldw	ra,4(sp)
 40008e0:	df000017 	ldw	fp,0(sp)
 40008e4:	dec00204 	addi	sp,sp,8
 40008e8:	f800283a 	ret

040008ec <getCorrections>:

//The PID from the basestation
int getCorrections(float *sigCor, float curAlt, float curLon, float curLat, float curPitch, float curRoll, float curDir, float targetDir, float targetAlt, float targetLat, float targetLon, float targetPitch, float targetRoll)
{
 40008ec:	defff004 	addi	sp,sp,-64
 40008f0:	dfc00f15 	stw	ra,60(sp)
 40008f4:	df000e15 	stw	fp,56(sp)
 40008f8:	dc000d15 	stw	r16,52(sp)
 40008fc:	dc400c15 	stw	r17,48(sp)
 4000900:	dc800b15 	stw	r18,44(sp)
 4000904:	dcc00a15 	stw	r19,40(sp)
 4000908:	df000e04 	addi	fp,sp,56
 400090c:	e13ff615 	stw	r4,-40(fp)
 4000910:	e17ff715 	stw	r5,-36(fp)
 4000914:	e1bff815 	stw	r6,-32(fp)
 4000918:	e1fff915 	stw	r7,-28(fp)
	count++;
 400091c:	d0a00417 	ldw	r2,-32752(gp)
 4000920:	10800044 	addi	r2,r2,1
 4000924:	d0a00415 	stw	r2,-32752(gp)
	float front = cos(curDir)*(targetLat-curLat) + sin(curDir)*(targetLon - curLon);
 4000928:	e1000417 	ldw	r4,16(fp)
 400092c:	400b5940 	call	400b594 <__extendsfdf2>
 4000930:	100b883a 	mov	r5,r2
 4000934:	180d883a 	mov	r6,r3
 4000938:	2809883a 	mov	r4,r5
 400093c:	300b883a 	mov	r5,r6
 4000940:	4006ccc0 	call	4006ccc <cos>
 4000944:	1009883a 	mov	r4,r2
 4000948:	180b883a 	mov	r5,r3
 400094c:	2021883a 	mov	r16,r4
 4000950:	2823883a 	mov	r17,r5
 4000954:	e1000717 	ldw	r4,28(fp)
 4000958:	e17ff917 	ldw	r5,-28(fp)
 400095c:	400b0080 	call	400b008 <__subsf3>
 4000960:	1009883a 	mov	r4,r2
 4000964:	400b5940 	call	400b594 <__extendsfdf2>
 4000968:	100f883a 	mov	r7,r2
 400096c:	1811883a 	mov	r8,r3
 4000970:	8009883a 	mov	r4,r16
 4000974:	880b883a 	mov	r5,r17
 4000978:	380d883a 	mov	r6,r7
 400097c:	400f883a 	mov	r7,r8
 4000980:	400b9f00 	call	400b9f0 <__muldf3>
 4000984:	1025883a 	mov	r18,r2
 4000988:	1827883a 	mov	r19,r3
 400098c:	e1000417 	ldw	r4,16(fp)
 4000990:	400b5940 	call	400b594 <__extendsfdf2>
 4000994:	100b883a 	mov	r5,r2
 4000998:	180d883a 	mov	r6,r3
 400099c:	2809883a 	mov	r4,r5
 40009a0:	300b883a 	mov	r5,r6
 40009a4:	4006e540 	call	4006e54 <sin>
 40009a8:	1009883a 	mov	r4,r2
 40009ac:	180b883a 	mov	r5,r3
 40009b0:	2021883a 	mov	r16,r4
 40009b4:	2823883a 	mov	r17,r5
 40009b8:	e1000817 	ldw	r4,32(fp)
 40009bc:	e17ff817 	ldw	r5,-32(fp)
 40009c0:	400b0080 	call	400b008 <__subsf3>
 40009c4:	1009883a 	mov	r4,r2
 40009c8:	400b5940 	call	400b594 <__extendsfdf2>
 40009cc:	100f883a 	mov	r7,r2
 40009d0:	1811883a 	mov	r8,r3
 40009d4:	8009883a 	mov	r4,r16
 40009d8:	880b883a 	mov	r5,r17
 40009dc:	380d883a 	mov	r6,r7
 40009e0:	400f883a 	mov	r7,r8
 40009e4:	400b9f00 	call	400b9f0 <__muldf3>
 40009e8:	100f883a 	mov	r7,r2
 40009ec:	1811883a 	mov	r8,r3
 40009f0:	9009883a 	mov	r4,r18
 40009f4:	980b883a 	mov	r5,r19
 40009f8:	380d883a 	mov	r6,r7
 40009fc:	400f883a 	mov	r7,r8
 4000a00:	400b90c0 	call	400b90c <__adddf3>
 4000a04:	100b883a 	mov	r5,r2
 4000a08:	180d883a 	mov	r6,r3
 4000a0c:	2809883a 	mov	r4,r5
 4000a10:	300b883a 	mov	r5,r6
 4000a14:	400c4bc0 	call	400c4bc <__truncdfsf2>
 4000a18:	e0bffa15 	stw	r2,-24(fp)
	float side = -sin(curDir)*(targetLat-curLat) + cos(curDir)*(targetLon - curLon);
 4000a1c:	e1000417 	ldw	r4,16(fp)
 4000a20:	400b5940 	call	400b594 <__extendsfdf2>
 4000a24:	100b883a 	mov	r5,r2
 4000a28:	180d883a 	mov	r6,r3
 4000a2c:	2809883a 	mov	r4,r5
 4000a30:	300b883a 	mov	r5,r6
 4000a34:	4006e540 	call	4006e54 <sin>
 4000a38:	1009883a 	mov	r4,r2
 4000a3c:	180b883a 	mov	r5,r3
 4000a40:	2005883a 	mov	r2,r4
 4000a44:	2807883a 	mov	r3,r5
 4000a48:	1008f03a 	xor	r4,r2,zero
 4000a4c:	1960003c 	xorhi	r5,r3,32768
 4000a50:	2021883a 	mov	r16,r4
 4000a54:	2823883a 	mov	r17,r5
 4000a58:	e1000717 	ldw	r4,28(fp)
 4000a5c:	e17ff917 	ldw	r5,-28(fp)
 4000a60:	400b0080 	call	400b008 <__subsf3>
 4000a64:	1009883a 	mov	r4,r2
 4000a68:	400b5940 	call	400b594 <__extendsfdf2>
 4000a6c:	100f883a 	mov	r7,r2
 4000a70:	1811883a 	mov	r8,r3
 4000a74:	8009883a 	mov	r4,r16
 4000a78:	880b883a 	mov	r5,r17
 4000a7c:	380d883a 	mov	r6,r7
 4000a80:	400f883a 	mov	r7,r8
 4000a84:	400b9f00 	call	400b9f0 <__muldf3>
 4000a88:	1025883a 	mov	r18,r2
 4000a8c:	1827883a 	mov	r19,r3
 4000a90:	e1000417 	ldw	r4,16(fp)
 4000a94:	400b5940 	call	400b594 <__extendsfdf2>
 4000a98:	100b883a 	mov	r5,r2
 4000a9c:	180d883a 	mov	r6,r3
 4000aa0:	2809883a 	mov	r4,r5
 4000aa4:	300b883a 	mov	r5,r6
 4000aa8:	4006ccc0 	call	4006ccc <cos>
 4000aac:	1009883a 	mov	r4,r2
 4000ab0:	180b883a 	mov	r5,r3
 4000ab4:	2021883a 	mov	r16,r4
 4000ab8:	2823883a 	mov	r17,r5
 4000abc:	e1000817 	ldw	r4,32(fp)
 4000ac0:	e17ff817 	ldw	r5,-32(fp)
 4000ac4:	400b0080 	call	400b008 <__subsf3>
 4000ac8:	1009883a 	mov	r4,r2
 4000acc:	400b5940 	call	400b594 <__extendsfdf2>
 4000ad0:	100f883a 	mov	r7,r2
 4000ad4:	1811883a 	mov	r8,r3
 4000ad8:	8009883a 	mov	r4,r16
 4000adc:	880b883a 	mov	r5,r17
 4000ae0:	380d883a 	mov	r6,r7
 4000ae4:	400f883a 	mov	r7,r8
 4000ae8:	400b9f00 	call	400b9f0 <__muldf3>
 4000aec:	100f883a 	mov	r7,r2
 4000af0:	1811883a 	mov	r8,r3
 4000af4:	9009883a 	mov	r4,r18
 4000af8:	980b883a 	mov	r5,r19
 4000afc:	380d883a 	mov	r6,r7
 4000b00:	400f883a 	mov	r7,r8
 4000b04:	400b90c0 	call	400b90c <__adddf3>
 4000b08:	100b883a 	mov	r5,r2
 4000b0c:	180d883a 	mov	r6,r3
 4000b10:	2809883a 	mov	r4,r5
 4000b14:	300b883a 	mov	r5,r6
 4000b18:	400c4bc0 	call	400c4bc <__truncdfsf2>
 4000b1c:	e0bffb15 	stw	r2,-20(fp)
	targetPitch = get_PID_correction( 0.0, front, &errLat, UAVLat);
 4000b20:	040100b4 	movhi	r16,1026
 4000b24:	842b5004 	addi	r16,r16,-21184
 4000b28:	d809883a 	mov	r4,sp
 4000b2c:	81400104 	addi	r5,r16,4
 4000b30:	01800404 	movi	r6,16
 4000b34:	400df500 	call	400df50 <memcpy>
 4000b38:	81c00017 	ldw	r7,0(r16)
 4000b3c:	0009883a 	mov	r4,zero
 4000b40:	e17ffa17 	ldw	r5,-24(fp)
 4000b44:	018100b4 	movhi	r6,1026
 4000b48:	31ab3404 	addi	r6,r6,-21296
 4000b4c:	4000cf80 	call	4000cf8 <get_PID_correction>
 4000b50:	e0800915 	stw	r2,36(fp)
	print = 0;
 4000b54:	d0200315 	stw	zero,-32756(gp)
	targetRoll = get_PID_correction(0.0, side, &errLong, UAVLon);
 4000b58:	040100b4 	movhi	r16,1026
 4000b5c:	842b3a04 	addi	r16,r16,-21272
 4000b60:	d809883a 	mov	r4,sp
 4000b64:	81400104 	addi	r5,r16,4
 4000b68:	01800404 	movi	r6,16
 4000b6c:	400df500 	call	400df50 <memcpy>
 4000b70:	81c00017 	ldw	r7,0(r16)
 4000b74:	0009883a 	mov	r4,zero
 4000b78:	e17ffb17 	ldw	r5,-20(fp)
 4000b7c:	018100b4 	movhi	r6,1026
 4000b80:	31ab0a04 	addi	r6,r6,-21464
 4000b84:	4000cf80 	call	4000cf8 <get_PID_correction>
 4000b88:	e0800a15 	stw	r2,40(fp)
	sigCor[0] = get_PID_correction(curAlt, targetAlt , &errAlt, UAVAlt);
 4000b8c:	040100b4 	movhi	r16,1026
 4000b90:	842b2f04 	addi	r16,r16,-21316
 4000b94:	d809883a 	mov	r4,sp
 4000b98:	81400104 	addi	r5,r16,4
 4000b9c:	01800404 	movi	r6,16
 4000ba0:	400df500 	call	400df50 <memcpy>
 4000ba4:	81c00017 	ldw	r7,0(r16)
 4000ba8:	e13ff717 	ldw	r4,-36(fp)
 4000bac:	e1400617 	ldw	r5,24(fp)
 4000bb0:	018100b4 	movhi	r6,1026
 4000bb4:	31ab4504 	addi	r6,r6,-21228
 4000bb8:	4000cf80 	call	4000cf8 <get_PID_correction>
 4000bbc:	1007883a 	mov	r3,r2
 4000bc0:	e0bff617 	ldw	r2,-40(fp)
 4000bc4:	10c00015 	stw	r3,0(r2)
    sigCor[1] = get_PID_correction(curPitch, targetPitch , &errPitch, UAVPitch);
 4000bc8:	040100b4 	movhi	r16,1026
 4000bcc:	842b2204 	addi	r16,r16,-21368
 4000bd0:	d809883a 	mov	r4,sp
 4000bd4:	81400104 	addi	r5,r16,4
 4000bd8:	01800404 	movi	r6,16
 4000bdc:	400df500 	call	400df50 <memcpy>
 4000be0:	81c00017 	ldw	r7,0(r16)
 4000be4:	e1000217 	ldw	r4,8(fp)
 4000be8:	e1400917 	ldw	r5,36(fp)
 4000bec:	018100b4 	movhi	r6,1026
 4000bf0:	31ab1004 	addi	r6,r6,-21440
 4000bf4:	4000cf80 	call	4000cf8 <get_PID_correction>
 4000bf8:	1007883a 	mov	r3,r2
 4000bfc:	e0bff617 	ldw	r2,-40(fp)
 4000c00:	10800104 	addi	r2,r2,4
 4000c04:	10c00015 	stw	r3,0(r2)
    sigCor[2] = get_PID_correction(curRoll, targetRoll , &errRoll, UAVRoll);
 4000c08:	040100b4 	movhi	r16,1026
 4000c0c:	842b2a04 	addi	r16,r16,-21336
 4000c10:	d809883a 	mov	r4,sp
 4000c14:	81400104 	addi	r5,r16,4
 4000c18:	01800404 	movi	r6,16
 4000c1c:	400df500 	call	400df50 <memcpy>
 4000c20:	81c00017 	ldw	r7,0(r16)
 4000c24:	e1000317 	ldw	r4,12(fp)
 4000c28:	e1400a17 	ldw	r5,40(fp)
 4000c2c:	018100b4 	movhi	r6,1026
 4000c30:	31ab3f04 	addi	r6,r6,-21252
 4000c34:	4000cf80 	call	4000cf8 <get_PID_correction>
 4000c38:	1007883a 	mov	r3,r2
 4000c3c:	e0bff617 	ldw	r2,-40(fp)
 4000c40:	10800204 	addi	r2,r2,8
 4000c44:	10c00015 	stw	r3,0(r2)
    printf("\nPitch Correction: %f    Roll Correction: %f",sigCor[1],sigCor[2]);
 4000c48:	e0bff617 	ldw	r2,-40(fp)
 4000c4c:	10800104 	addi	r2,r2,4
 4000c50:	11000017 	ldw	r4,0(r2)
 4000c54:	400b5940 	call	400b594 <__extendsfdf2>
 4000c58:	1021883a 	mov	r16,r2
 4000c5c:	1823883a 	mov	r17,r3
 4000c60:	e0bff617 	ldw	r2,-40(fp)
 4000c64:	10800204 	addi	r2,r2,8
 4000c68:	11000017 	ldw	r4,0(r2)
 4000c6c:	400b5940 	call	400b594 <__extendsfdf2>
 4000c70:	1009883a 	mov	r4,r2
 4000c74:	180b883a 	mov	r5,r3
 4000c78:	d9400015 	stw	r5,0(sp)
 4000c7c:	200f883a 	mov	r7,r4
 4000c80:	010100b4 	movhi	r4,1026
 4000c84:	21209c04 	addi	r4,r4,-32144
 4000c88:	800b883a 	mov	r5,r16
 4000c8c:	880d883a 	mov	r6,r17
 4000c90:	400e10c0 	call	400e10c <printf>
    sigCor[3] = get_PID_correction(curDir, targetDir , &errYaw, UAVYaw);
 4000c94:	040100b4 	movhi	r16,1026
 4000c98:	842b4b04 	addi	r16,r16,-21204
 4000c9c:	d809883a 	mov	r4,sp
 4000ca0:	81400104 	addi	r5,r16,4
 4000ca4:	01800404 	movi	r6,16
 4000ca8:	400df500 	call	400df50 <memcpy>
 4000cac:	81c00017 	ldw	r7,0(r16)
 4000cb0:	e1000417 	ldw	r4,16(fp)
 4000cb4:	e1400517 	ldw	r5,20(fp)
 4000cb8:	018100b4 	movhi	r6,1026
 4000cbc:	31ab1604 	addi	r6,r6,-21416
 4000cc0:	4000cf80 	call	4000cf8 <get_PID_correction>
 4000cc4:	1007883a 	mov	r3,r2
 4000cc8:	e0bff617 	ldw	r2,-40(fp)
 4000ccc:	10800304 	addi	r2,r2,12
 4000cd0:	10c00015 	stw	r3,0(r2)
    return 1;
 4000cd4:	00800044 	movi	r2,1
}
 4000cd8:	dfc00f17 	ldw	ra,60(sp)
 4000cdc:	df000e17 	ldw	fp,56(sp)
 4000ce0:	dc000d17 	ldw	r16,52(sp)
 4000ce4:	dc400c17 	ldw	r17,48(sp)
 4000ce8:	dc800b17 	ldw	r18,44(sp)
 4000cec:	dcc00a17 	ldw	r19,40(sp)
 4000cf0:	dec01004 	addi	sp,sp,64
 4000cf4:	f800283a 	ret

04000cf8 <get_PID_correction>:

//The PID stuff that was copied from the base station
float get_PID_correction(float current, float target, struct MCTPIDERR *err, struct MCTPID pid)
{
 4000cf8:	deffef04 	addi	sp,sp,-68
 4000cfc:	dfc00f15 	stw	ra,60(sp)
 4000d00:	df000e15 	stw	fp,56(sp)
 4000d04:	dc000d15 	stw	r16,52(sp)
 4000d08:	dc400c15 	stw	r17,48(sp)
 4000d0c:	df000e04 	addi	fp,sp,56
 4000d10:	e13ff215 	stw	r4,-56(fp)
 4000d14:	e17ff315 	stw	r5,-52(fp)
 4000d18:	e1bff415 	stw	r6,-48(fp)
 4000d1c:	e1c00215 	stw	r7,8(fp)
    // check if there is new data
    if( (target - current) == err->err) {
 4000d20:	e13ff317 	ldw	r4,-52(fp)
 4000d24:	e17ff217 	ldw	r5,-56(fp)
 4000d28:	400b0080 	call	400b008 <__subsf3>
 4000d2c:	e0fff417 	ldw	r3,-48(fp)
 4000d30:	1009883a 	mov	r4,r2
 4000d34:	19400017 	ldw	r5,0(r3)
 4000d38:	400b3680 	call	400b368 <__eqsf2>
 4000d3c:	1005003a 	cmpeq	r2,r2,zero
 4000d40:	1000011e 	bne	r2,zero,4000d48 <get_PID_correction+0x50>
 4000d44:	00000406 	br	4000d58 <get_PID_correction+0x60>
        return err->correction;
 4000d48:	e0bff417 	ldw	r2,-48(fp)
 4000d4c:	10800417 	ldw	r2,16(r2)
 4000d50:	e0bffb15 	stw	r2,-20(fp)
 4000d54:	00009b06 	br	4000fc4 <get_PID_correction+0x2cc>
    } else {
        double timeslice;
        alt_timestamp_type now;
        float p,i,d;
        now = alt_timestamp();
 4000d58:	4016a000 	call	4016a00 <alt_timestamp>
 4000d5c:	e0bff715 	stw	r2,-36(fp)
        //calculate timeslice in seconds
        if(now < err->mark){
 4000d60:	e0bff417 	ldw	r2,-48(fp)
 4000d64:	10c00517 	ldw	r3,20(r2)
 4000d68:	e0bff717 	ldw	r2,-36(fp)
 4000d6c:	10c0072e 	bgeu	r2,r3,4000d8c <get_PID_correction+0x94>
        	err->mark = now;
 4000d70:	e0fff417 	ldw	r3,-48(fp)
 4000d74:	e0bff717 	ldw	r2,-36(fp)
 4000d78:	18800515 	stw	r2,20(r3)
        	return err->correction;
 4000d7c:	e0bff417 	ldw	r2,-48(fp)
 4000d80:	10800417 	ldw	r2,16(r2)
 4000d84:	e0bffb15 	stw	r2,-20(fp)
 4000d88:	00008e06 	br	4000fc4 <get_PID_correction+0x2cc>
        }
        timeslice = (double) (now - err->mark + 1);
 4000d8c:	e0bff417 	ldw	r2,-48(fp)
 4000d90:	e0fff717 	ldw	r3,-36(fp)
 4000d94:	10800517 	ldw	r2,20(r2)
 4000d98:	1885c83a 	sub	r2,r3,r2
 4000d9c:	14000044 	addi	r16,r2,1
 4000da0:	8009883a 	mov	r4,r16
 4000da4:	400c2fc0 	call	400c2fc <__floatsidf>
 4000da8:	e0bffc15 	stw	r2,-16(fp)
 4000dac:	e0fffd15 	stw	r3,-12(fp)
 4000db0:	8004403a 	cmpge	r2,r16,zero
 4000db4:	10000c1e 	bne	r2,zero,4000de8 <get_PID_correction+0xf0>
 4000db8:	e13ffc17 	ldw	r4,-16(fp)
 4000dbc:	e17ffd17 	ldw	r5,-12(fp)
 4000dc0:	000d883a 	mov	r6,zero
 4000dc4:	01d07c34 	movhi	r7,16880
 4000dc8:	39c00004 	addi	r7,r7,0
 4000dcc:	400b90c0 	call	400b90c <__adddf3>
 4000dd0:	1009883a 	mov	r4,r2
 4000dd4:	180b883a 	mov	r5,r3
 4000dd8:	2005883a 	mov	r2,r4
 4000ddc:	e0bffc15 	stw	r2,-16(fp)
 4000de0:	2809883a 	mov	r4,r5
 4000de4:	e13ffd15 	stw	r4,-12(fp)
 4000de8:	e0bffc17 	ldw	r2,-16(fp)
 4000dec:	e0bff515 	stw	r2,-44(fp)
 4000df0:	e0bffd17 	ldw	r2,-12(fp)
 4000df4:	e0bff615 	stw	r2,-40(fp)
       //move all current to previous
        err->mark = now;
 4000df8:	e0fff417 	ldw	r3,-48(fp)
 4000dfc:	e0bff717 	ldw	r2,-36(fp)
 4000e00:	18800515 	stw	r2,20(r3)
        err->preverr = err->err;
 4000e04:	e0fff417 	ldw	r3,-48(fp)
 4000e08:	e0bff417 	ldw	r2,-48(fp)
 4000e0c:	10800017 	ldw	r2,0(r2)
 4000e10:	18800115 	stw	r2,4(r3)
        //caluclate new error and filtered error
        err->err = target - current;
 4000e14:	e43ff417 	ldw	r16,-48(fp)
 4000e18:	e13ff317 	ldw	r4,-52(fp)
 4000e1c:	e17ff217 	ldw	r5,-56(fp)
 4000e20:	400b0080 	call	400b008 <__subsf3>
 4000e24:	80800015 	stw	r2,0(r16)

        //calculate p term
        p = pid.Kp * err->err;
 4000e28:	e0bff417 	ldw	r2,-48(fp)
 4000e2c:	e1000217 	ldw	r4,8(fp)
 4000e30:	11400017 	ldw	r5,0(r2)
 4000e34:	400b06c0 	call	400b06c <__mulsf3>
 4000e38:	e0bff815 	stw	r2,-32(fp)
        //calculate i term
        i = ( pid.Ki * timeslice * err->err ) + err->prevI;
 4000e3c:	e1000317 	ldw	r4,12(fp)
 4000e40:	400b5940 	call	400b594 <__extendsfdf2>
 4000e44:	100b883a 	mov	r5,r2
 4000e48:	180d883a 	mov	r6,r3
 4000e4c:	2809883a 	mov	r4,r5
 4000e50:	300b883a 	mov	r5,r6
 4000e54:	e1bff517 	ldw	r6,-44(fp)
 4000e58:	e1fff617 	ldw	r7,-40(fp)
 4000e5c:	400b9f00 	call	400b9f0 <__muldf3>
 4000e60:	1021883a 	mov	r16,r2
 4000e64:	1823883a 	mov	r17,r3
 4000e68:	e0bff417 	ldw	r2,-48(fp)
 4000e6c:	11000017 	ldw	r4,0(r2)
 4000e70:	400b5940 	call	400b594 <__extendsfdf2>
 4000e74:	100f883a 	mov	r7,r2
 4000e78:	1811883a 	mov	r8,r3
 4000e7c:	8009883a 	mov	r4,r16
 4000e80:	880b883a 	mov	r5,r17
 4000e84:	380d883a 	mov	r6,r7
 4000e88:	400f883a 	mov	r7,r8
 4000e8c:	400b9f00 	call	400b9f0 <__muldf3>
 4000e90:	1021883a 	mov	r16,r2
 4000e94:	1823883a 	mov	r17,r3
 4000e98:	e0bff417 	ldw	r2,-48(fp)
 4000e9c:	11000217 	ldw	r4,8(r2)
 4000ea0:	400b5940 	call	400b594 <__extendsfdf2>
 4000ea4:	100f883a 	mov	r7,r2
 4000ea8:	1811883a 	mov	r8,r3
 4000eac:	8009883a 	mov	r4,r16
 4000eb0:	880b883a 	mov	r5,r17
 4000eb4:	380d883a 	mov	r6,r7
 4000eb8:	400f883a 	mov	r7,r8
 4000ebc:	400b90c0 	call	400b90c <__adddf3>
 4000ec0:	100b883a 	mov	r5,r2
 4000ec4:	180d883a 	mov	r6,r3
 4000ec8:	2809883a 	mov	r4,r5
 4000ecc:	300b883a 	mov	r5,r6
 4000ed0:	400c4bc0 	call	400c4bc <__truncdfsf2>
 4000ed4:	e0bff915 	stw	r2,-28(fp)
        err->prevI = i;
 4000ed8:	e0fff417 	ldw	r3,-48(fp)
 4000edc:	e0bff917 	ldw	r2,-28(fp)
 4000ee0:	18800215 	stw	r2,8(r3)
        //calculate d term
        d = ( ( pid.Kd * ( err->err - err->preverr ) ) + (pid.Kf * err->prevD) ) / (pid.Kf + timeslice);
 4000ee4:	e0bff417 	ldw	r2,-48(fp)
 4000ee8:	e0fff417 	ldw	r3,-48(fp)
 4000eec:	11000017 	ldw	r4,0(r2)
 4000ef0:	19400117 	ldw	r5,4(r3)
 4000ef4:	400b0080 	call	400b008 <__subsf3>
 4000ef8:	1009883a 	mov	r4,r2
 4000efc:	e1400417 	ldw	r5,16(fp)
 4000f00:	400b06c0 	call	400b06c <__mulsf3>
 4000f04:	1021883a 	mov	r16,r2
 4000f08:	e0bff417 	ldw	r2,-48(fp)
 4000f0c:	e1000517 	ldw	r4,20(fp)
 4000f10:	11400317 	ldw	r5,12(r2)
 4000f14:	400b06c0 	call	400b06c <__mulsf3>
 4000f18:	8009883a 	mov	r4,r16
 4000f1c:	100b883a 	mov	r5,r2
 4000f20:	400afb00 	call	400afb0 <__addsf3>
 4000f24:	1009883a 	mov	r4,r2
 4000f28:	400b5940 	call	400b594 <__extendsfdf2>
 4000f2c:	1021883a 	mov	r16,r2
 4000f30:	1823883a 	mov	r17,r3
 4000f34:	e1000517 	ldw	r4,20(fp)
 4000f38:	400b5940 	call	400b594 <__extendsfdf2>
 4000f3c:	100b883a 	mov	r5,r2
 4000f40:	180d883a 	mov	r6,r3
 4000f44:	2809883a 	mov	r4,r5
 4000f48:	300b883a 	mov	r5,r6
 4000f4c:	e1bff517 	ldw	r6,-44(fp)
 4000f50:	e1fff617 	ldw	r7,-40(fp)
 4000f54:	400b90c0 	call	400b90c <__adddf3>
 4000f58:	100f883a 	mov	r7,r2
 4000f5c:	1811883a 	mov	r8,r3
 4000f60:	8009883a 	mov	r4,r16
 4000f64:	880b883a 	mov	r5,r17
 4000f68:	380d883a 	mov	r6,r7
 4000f6c:	400f883a 	mov	r7,r8
 4000f70:	400bdf00 	call	400bdf0 <__divdf3>
 4000f74:	100b883a 	mov	r5,r2
 4000f78:	180d883a 	mov	r6,r3
 4000f7c:	2809883a 	mov	r4,r5
 4000f80:	300b883a 	mov	r5,r6
 4000f84:	400c4bc0 	call	400c4bc <__truncdfsf2>
 4000f88:	e0bffa15 	stw	r2,-24(fp)
        err->prevD = d;
 4000f8c:	e0fff417 	ldw	r3,-48(fp)
 4000f90:	e0bffa17 	ldw	r2,-24(fp)
 4000f94:	18800315 	stw	r2,12(r3)
        err->correction = ( p + i + d);
 4000f98:	e43ff417 	ldw	r16,-48(fp)
 4000f9c:	e13ff817 	ldw	r4,-32(fp)
 4000fa0:	e17ff917 	ldw	r5,-28(fp)
 4000fa4:	400afb00 	call	400afb0 <__addsf3>
 4000fa8:	1009883a 	mov	r4,r2
 4000fac:	e17ffa17 	ldw	r5,-24(fp)
 4000fb0:	400afb00 	call	400afb0 <__addsf3>
 4000fb4:	80800415 	stw	r2,16(r16)
        return err->correction;
 4000fb8:	e0bff417 	ldw	r2,-48(fp)
 4000fbc:	10800417 	ldw	r2,16(r2)
 4000fc0:	e0bffb15 	stw	r2,-20(fp)

    }
}
 4000fc4:	e0bffb17 	ldw	r2,-20(fp)
 4000fc8:	dfc00f17 	ldw	ra,60(sp)
 4000fcc:	df000e17 	ldw	fp,56(sp)
 4000fd0:	dc000d17 	ldw	r16,52(sp)
 4000fd4:	dc400c17 	ldw	r17,48(sp)
 4000fd8:	dec01104 	addi	sp,sp,68
 4000fdc:	f800283a 	ret

04000fe0 <CRC>:

/* CHECK THE CRC TO ENSURE DATA PACKET IS VALID
 * LOTS OF ISSUES WITH PACKET VALIDITY IN 13-14 BE WARNED.
 * ALL IS STABLE WITH THE CURRENT SET UP OF 19200 BAUD RATE AND THIS CRC CHECK
 * POTENTIALLY REPLACE THIS WITH SOMETHING MORE LIGHTWEIGHT, MAY BE OVERKILL*/
unsigned short CRC(const char* message, int numbytes, unsigned short crccheck)
{
 4000fe0:	defffb04 	addi	sp,sp,-20
 4000fe4:	df000415 	stw	fp,16(sp)
 4000fe8:	df000404 	addi	fp,sp,16
 4000fec:	e13ffc15 	stw	r4,-16(fp)
 4000ff0:	e17ffd15 	stw	r5,-12(fp)
 4000ff4:	e1bffe0d 	sth	r6,-8(fp)
	unsigned short crc = 0xFFFF;
 4000ff8:	00bfffc4 	movi	r2,-1
 4000ffc:	e0bffe8d 	sth	r2,-6(fp)
	short i = 0, j = 0;
 4001000:	e03fff0d 	sth	zero,-4(fp)
 4001004:	e03fff8d 	sth	zero,-2(fp)

	for(i = 0; i < numbytes; i++)
 4001008:	e03fff0d 	sth	zero,-4(fp)
 400100c:	e0ffff0f 	ldh	r3,-4(fp)
 4001010:	e0bffd17 	ldw	r2,-12(fp)
 4001014:	1880200e 	bge	r3,r2,4001098 <CRC+0xb8>
	{
		crc = (crc ^ (message[i] << 8));
 4001018:	e0ffff0f 	ldh	r3,-4(fp)
 400101c:	e0bffc17 	ldw	r2,-16(fp)
 4001020:	1885883a 	add	r2,r3,r2
 4001024:	10800007 	ldb	r2,0(r2)
 4001028:	1004923a 	slli	r2,r2,8
 400102c:	e0fffe8b 	ldhu	r3,-6(fp)
 4001030:	1884f03a 	xor	r2,r3,r2
 4001034:	e0bffe8d 	sth	r2,-6(fp)
		for(j = 1; j <= 8; j++)
 4001038:	00800044 	movi	r2,1
 400103c:	e0bfff8d 	sth	r2,-2(fp)
 4001040:	e0bfff8f 	ldh	r2,-2(fp)
 4001044:	10800248 	cmpgei	r2,r2,9
 4001048:	10000f1e 	bne	r2,zero,4001088 <CRC+0xa8>
		{
			if(crc & (0x8000)){
 400104c:	e0bffe8f 	ldh	r2,-6(fp)
 4001050:	1004403a 	cmpge	r2,r2,zero
 4001054:	1000051e 	bne	r2,zero,400106c <CRC+0x8c>
				 crc = (crc << 1) ^ 0x1021; //poly
 4001058:	e0bffe8b 	ldhu	r2,-6(fp)
 400105c:	1085883a 	add	r2,r2,r2
 4001060:	1084085c 	xori	r2,r2,4129
 4001064:	e0bffe8d 	sth	r2,-6(fp)
 4001068:	00000306 	br	4001078 <CRC+0x98>
			}
			else{
				crc = (crc << 1);
 400106c:	e0bffe8b 	ldhu	r2,-6(fp)
 4001070:	1085883a 	add	r2,r2,r2
 4001074:	e0bffe8d 	sth	r2,-6(fp)
 4001078:	e0bfff8b 	ldhu	r2,-2(fp)
 400107c:	10800044 	addi	r2,r2,1
 4001080:	e0bfff8d 	sth	r2,-2(fp)
 4001084:	003fee06 	br	4001040 <CRC+0x60>
 4001088:	e0bfff0b 	ldhu	r2,-4(fp)
 400108c:	10800044 	addi	r2,r2,1
 4001090:	e0bfff0d 	sth	r2,-4(fp)
 4001094:	003fdd06 	br	400100c <CRC+0x2c>
			}
		}
	}
	return crc ^ crccheck;
 4001098:	e0fffe8b 	ldhu	r3,-6(fp)
 400109c:	e0bffe0b 	ldhu	r2,-8(fp)
 40010a0:	1884f03a 	xor	r2,r3,r2
 40010a4:	10bfffcc 	andi	r2,r2,65535
}
 40010a8:	df000417 	ldw	fp,16(sp)
 40010ac:	dec00504 	addi	sp,sp,20
 40010b0:	f800283a 	ret

040010b4 <normalize3DVector>:



void normalize3DVector(float* vector){
 40010b4:	defffc04 	addi	sp,sp,-16
 40010b8:	dfc00315 	stw	ra,12(sp)
 40010bc:	df000215 	stw	fp,8(sp)
 40010c0:	dc000115 	stw	r16,4(sp)
 40010c4:	df000204 	addi	fp,sp,8
 40010c8:	e13ffe15 	stw	r4,-8(fp)
  static float R;
  R = sqrt(vector[0]*vector[0] + vector[1]*vector[1] + vector[2]*vector[2]);
 40010cc:	e0bffe17 	ldw	r2,-8(fp)
 40010d0:	11000017 	ldw	r4,0(r2)
 40010d4:	11400017 	ldw	r5,0(r2)
 40010d8:	400b06c0 	call	400b06c <__mulsf3>
 40010dc:	1021883a 	mov	r16,r2
 40010e0:	e0bffe17 	ldw	r2,-8(fp)
 40010e4:	10800104 	addi	r2,r2,4
 40010e8:	11000017 	ldw	r4,0(r2)
 40010ec:	11400017 	ldw	r5,0(r2)
 40010f0:	400b06c0 	call	400b06c <__mulsf3>
 40010f4:	8009883a 	mov	r4,r16
 40010f8:	100b883a 	mov	r5,r2
 40010fc:	400afb00 	call	400afb0 <__addsf3>
 4001100:	1021883a 	mov	r16,r2
 4001104:	e0bffe17 	ldw	r2,-8(fp)
 4001108:	10800204 	addi	r2,r2,8
 400110c:	11000017 	ldw	r4,0(r2)
 4001110:	11400017 	ldw	r5,0(r2)
 4001114:	400b06c0 	call	400b06c <__mulsf3>
 4001118:	8009883a 	mov	r4,r16
 400111c:	100b883a 	mov	r5,r2
 4001120:	400afb00 	call	400afb0 <__addsf3>
 4001124:	1009883a 	mov	r4,r2
 4001128:	400b5940 	call	400b594 <__extendsfdf2>
 400112c:	100b883a 	mov	r5,r2
 4001130:	180d883a 	mov	r6,r3
 4001134:	2809883a 	mov	r4,r5
 4001138:	300b883a 	mov	r5,r6
 400113c:	40073140 	call	4007314 <sqrt>
 4001140:	100b883a 	mov	r5,r2
 4001144:	180d883a 	mov	r6,r3
 4001148:	2809883a 	mov	r4,r5
 400114c:	300b883a 	mov	r5,r6
 4001150:	400c4bc0 	call	400c4bc <__truncdfsf2>
 4001154:	d0a03315 	stw	r2,-32564(gp)
  vector[0] /= R;
 4001158:	e43ffe17 	ldw	r16,-8(fp)
 400115c:	e0bffe17 	ldw	r2,-8(fp)
 4001160:	11000017 	ldw	r4,0(r2)
 4001164:	d1603317 	ldw	r5,-32564(gp)
 4001168:	400b2300 	call	400b230 <__divsf3>
 400116c:	80800015 	stw	r2,0(r16)
  vector[1] /= R;
 4001170:	e0bffe17 	ldw	r2,-8(fp)
 4001174:	14000104 	addi	r16,r2,4
 4001178:	e0bffe17 	ldw	r2,-8(fp)
 400117c:	10800104 	addi	r2,r2,4
 4001180:	11000017 	ldw	r4,0(r2)
 4001184:	d1603317 	ldw	r5,-32564(gp)
 4001188:	400b2300 	call	400b230 <__divsf3>
 400118c:	80800015 	stw	r2,0(r16)
  vector[2] /= R;
 4001190:	e0bffe17 	ldw	r2,-8(fp)
 4001194:	14000204 	addi	r16,r2,8
 4001198:	e0bffe17 	ldw	r2,-8(fp)
 400119c:	10800204 	addi	r2,r2,8
 40011a0:	11000017 	ldw	r4,0(r2)
 40011a4:	d1603317 	ldw	r5,-32564(gp)
 40011a8:	400b2300 	call	400b230 <__divsf3>
 40011ac:	80800015 	stw	r2,0(r16)
}
 40011b0:	dfc00317 	ldw	ra,12(sp)
 40011b4:	df000217 	ldw	fp,8(sp)
 40011b8:	dc000117 	ldw	r16,4(sp)
 40011bc:	dec00404 	addi	sp,sp,16
 40011c0:	f800283a 	ret

040011c4 <squared>:

float squared(float x){
 40011c4:	defffd04 	addi	sp,sp,-12
 40011c8:	dfc00215 	stw	ra,8(sp)
 40011cc:	df000115 	stw	fp,4(sp)
 40011d0:	df000104 	addi	fp,sp,4
 40011d4:	e13fff15 	stw	r4,-4(fp)
  return x*x;
 40011d8:	e13fff17 	ldw	r4,-4(fp)
 40011dc:	e17fff17 	ldw	r5,-4(fp)
 40011e0:	400b06c0 	call	400b06c <__mulsf3>
}
 40011e4:	dfc00217 	ldw	ra,8(sp)
 40011e8:	df000117 	ldw	fp,4(sp)
 40011ec:	dec00304 	addi	sp,sp,12
 40011f0:	f800283a 	ret

040011f4 <main>:
/*********************************************************
 * Title:               main
 *
 * Description:
 *      The entry point to the program
 *
 ********************************************************/
int main()
{
 40011f4:	deffd604 	addi	sp,sp,-168
 40011f8:	dfc02915 	stw	ra,164(sp)
 40011fc:	df002815 	stw	fp,160(sp)
 4001200:	dc002715 	stw	r16,156(sp)
 4001204:	dc402615 	stw	r17,152(sp)
 4001208:	df002804 	addi	fp,sp,160
	//printf("Hello from jones III Control TEST Nios II");
	//This is the data that we will read in
	//This is the pointer to the data that we read in
	float *readInto = data;
 400120c:	008100b4 	movhi	r2,1026
 4001210:	10a2d704 	addi	r2,r2,-29860
 4001214:	e0bfe115 	stw	r2,-124(fp)
	//Lets us read in the data
	char *byte_ptr = (char *) data;
 4001218:	008100b4 	movhi	r2,1026
 400121c:	10a2d704 	addi	r2,r2,-29860
 4001220:	e0bfe215 	stw	r2,-120(fp)
	char readBuffer[2];
	/**
	 * The current values of the quad
	 * Are sent over from the camera system now, will eventually be GPS and Kalman filter
	 */


	//0 is altitude error
	//1 is pitch error
	//2 is roll error
	//3 is yaw error
	//The error values that the PID finds
	float sigCorArr[4] = {0, 0, 0 ,0};
 4001224:	e03fe415 	stw	zero,-112(fp)
 4001228:	e03fe515 	stw	zero,-108(fp)
 400122c:	e03fe615 	stw	zero,-104(fp)
 4001230:	e03fe715 	stw	zero,-100(fp)
	//Pointer to the sigCorArr that we pass to functions
	float *sigCorPtr = sigCorArr;
 4001234:	e0bfe404 	addi	r2,fp,-112
 4001238:	e0bfe815 	stw	r2,-96(fp)
	//The values that we are sending to the RC controller
	int RCValuesArr[4] = {0, 0, 0, 0};
 400123c:	e03fe915 	stw	zero,-92(fp)
 4001240:	e03fea15 	stw	zero,-88(fp)
 4001244:	e03feb15 	stw	zero,-84(fp)
 4001248:	e03fec15 	stw	zero,-80(fp)
	//Pointer to the RCValuesArr so we can pass to functions
	int *RCValuesPtr = RCValuesArr;
 400124c:	e0bfe904 	addi	r2,fp,-92
 4001250:	e0bfed15 	stw	r2,-76(fp)
	//The throttle value
	int thrtVal = 0;
 4001254:	e03fee15 	stw	zero,-72(fp)
	//The pitch value
	int pitchVal = 50;
 4001258:	00800c84 	movi	r2,50
 400125c:	e0bfef15 	stw	r2,-68(fp)
	//The roll value
	int rollVal = 50;
 4001260:	00800c84 	movi	r2,50
 4001264:	e0bff015 	stw	r2,-64(fp)
	//The yaw value
	int yawVal = 50;
 4001268:	00800c84 	movi	r2,50
 400126c:	e0bff115 	stw	r2,-60(fp)
	/**
	 * The trim values may need to be set eventually
	 */
	//The throttle trim
	float thrtTrim = 0;
 4001270:	e03ff215 	stw	zero,-56(fp)
	//The pitch trim
	float pitchTrim = 0;
 4001274:	e03ff315 	stw	zero,-52(fp)
	//The roll trim
	float rollTrim = 0;
 4001278:	e03ff415 	stw	zero,-48(fp)
	//The yaw trim
	float yawTrim = 0;
 400127c:	e03ff515 	stw	zero,-44(fp)
	//whether this is the first time through the while loop
	int firstTime = 1;
 4001280:	00800044 	movi	r2,1
 4001284:	e0bff615 	stw	r2,-40(fp)
	int numRead = 0;
 4001288:	e03ff715 	stw	zero,-36(fp)
	int temp = 0;
 400128c:	e03ff815 	stw	zero,-32(fp)
	unsigned wantData = 0;
 4001290:	e03ff915 	stw	zero,-28(fp)
	char startbyte;
	int fd;

	/* Last 2 bytes after packet in transmission */
	unsigned short crccheck;

	//Constants that are given from the quadcopter testing, you can find them on the base station log file
	UAVLat.Kd = -1.5;
 4001294:	00c100b4 	movhi	r3,1026
 4001298:	18eb5004 	addi	r3,r3,-21184
 400129c:	00aff034 	movhi	r2,49088
 40012a0:	10800004 	addi	r2,r2,0
 40012a4:	18800215 	stw	r2,8(r3)
	UAVLat.Kf = 0;
 40012a8:	008100b4 	movhi	r2,1026
 40012ac:	10ab5004 	addi	r2,r2,-21184
 40012b0:	10000315 	stw	zero,12(r2)
	UAVLat.Ki = 0;
 40012b4:	008100b4 	movhi	r2,1026
 40012b8:	10ab5004 	addi	r2,r2,-21184
 40012bc:	10000115 	stw	zero,4(r2)
	UAVLat.Kp = -0.7;
 40012c0:	00c100b4 	movhi	r3,1026
 40012c4:	18eb5004 	addi	r3,r3,-21184
 40012c8:	00afccf4 	movhi	r2,48947
 40012cc:	108cccc4 	addi	r2,r2,13107
 40012d0:	18800015 	stw	r2,0(r3)
	UAVLat.Kt = 0;
 40012d4:	008100b4 	movhi	r2,1026
 40012d8:	10ab5004 	addi	r2,r2,-21184
 40012dc:	10000415 	stw	zero,16(r2)
	UAVLon.Kd = 1.5;
 40012e0:	00c100b4 	movhi	r3,1026
 40012e4:	18eb3a04 	addi	r3,r3,-21272
 40012e8:	008ff034 	movhi	r2,16320
 40012ec:	10800004 	addi	r2,r2,0
 40012f0:	18800215 	stw	r2,8(r3)
	UAVLon.Kf = 0;
 40012f4:	008100b4 	movhi	r2,1026
 40012f8:	10ab3a04 	addi	r2,r2,-21272
 40012fc:	10000315 	stw	zero,12(r2)
	UAVLon.Ki = 0;
 4001300:	008100b4 	movhi	r2,1026
 4001304:	10ab3a04 	addi	r2,r2,-21272
 4001308:	10000115 	stw	zero,4(r2)
	UAVLon.Kp = 0.7;
 400130c:	00c100b4 	movhi	r3,1026
 4001310:	18eb3a04 	addi	r3,r3,-21272
 4001314:	008fccf4 	movhi	r2,16179
 4001318:	108cccc4 	addi	r2,r2,13107
 400131c:	18800015 	stw	r2,0(r3)
	UAVLon.Kt = 0;
 4001320:	008100b4 	movhi	r2,1026
 4001324:	10ab3a04 	addi	r2,r2,-21272
 4001328:	10000415 	stw	zero,16(r2)
	UAVAlt.Kd = 139.3324;
 400132c:	00c100b4 	movhi	r3,1026
 4001330:	18eb2f04 	addi	r3,r3,-21316
 4001334:	0090c2f4 	movhi	r2,17163
 4001338:	10954604 	addi	r2,r2,21784
 400133c:	18800215 	stw	r2,8(r3)
	UAVAlt.Kf = 0.23608;
 4001340:	00c100b4 	movhi	r3,1026
 4001344:	18eb2f04 	addi	r3,r3,-21316
 4001348:	008f9cb4 	movhi	r2,15986
 400134c:	10afbd44 	addi	r2,r2,-16651
 4001350:	18800315 	stw	r2,12(r3)
	UAVAlt.Ki = 0.7777;
 4001354:	00c100b4 	movhi	r3,1026
 4001358:	18eb2f04 	addi	r3,r3,-21316
 400135c:	008fd1f4 	movhi	r2,16199
 4001360:	1085d644 	addi	r2,r2,5977
 4001364:	18800115 	stw	r2,4(r3)
	UAVAlt.Kp = 44.076;
 4001368:	00c100b4 	movhi	r3,1026
 400136c:	18eb2f04 	addi	r3,r3,-21316
 4001370:	00908c34 	movhi	r2,16944
 4001374:	109374c4 	addi	r2,r2,19923
 4001378:	18800015 	stw	r2,0(r3)
	UAVAlt.Kt = 0;
 400137c:	008100b4 	movhi	r2,1026
 4001380:	10ab2f04 	addi	r2,r2,-21316
 4001384:	10000415 	stw	zero,16(r2)
	UAVPitch.Kd = 0;
 4001388:	008100b4 	movhi	r2,1026
 400138c:	10ab2204 	addi	r2,r2,-21368
 4001390:	10000215 	stw	zero,8(r2)
	UAVPitch.Kf = 0;
 4001394:	008100b4 	movhi	r2,1026
 4001398:	10ab2204 	addi	r2,r2,-21368
 400139c:	10000315 	stw	zero,12(r2)
	UAVPitch.Ki = 0;
 40013a0:	008100b4 	movhi	r2,1026
 40013a4:	10ab2204 	addi	r2,r2,-21368
 40013a8:	10000115 	stw	zero,4(r2)
	UAVPitch.Kp = -251;
 40013ac:	00c100b4 	movhi	r3,1026
 40013b0:	18eb2204 	addi	r3,r3,-21368
 40013b4:	00b0def4 	movhi	r2,50043
 40013b8:	10800004 	addi	r2,r2,0
 40013bc:	18800015 	stw	r2,0(r3)
	UAVPitch.Kt = 0;
 40013c0:	008100b4 	movhi	r2,1026
 40013c4:	10ab2204 	addi	r2,r2,-21368
 40013c8:	10000415 	stw	zero,16(r2)
	UAVRoll.Kd = 0;
 40013cc:	008100b4 	movhi	r2,1026
 40013d0:	10ab2a04 	addi	r2,r2,-21336
 40013d4:	10000215 	stw	zero,8(r2)
	UAVRoll.Kf = 0;
 40013d8:	008100b4 	movhi	r2,1026
 40013dc:	10ab2a04 	addi	r2,r2,-21336
 40013e0:	10000315 	stw	zero,12(r2)
	UAVRoll.Ki = 0;
 40013e4:	008100b4 	movhi	r2,1026
 40013e8:	10ab2a04 	addi	r2,r2,-21336
 40013ec:	10000115 	stw	zero,4(r2)
	UAVRoll.Kp = 251;
 40013f0:	00c100b4 	movhi	r3,1026
 40013f4:	18eb2a04 	addi	r3,r3,-21336
 40013f8:	0090def4 	movhi	r2,17275
 40013fc:	10800004 	addi	r2,r2,0
 4001400:	18800015 	stw	r2,0(r3)
	UAVRoll.Kt = 0;
 4001404:	008100b4 	movhi	r2,1026
 4001408:	10ab2a04 	addi	r2,r2,-21336
 400140c:	10000415 	stw	zero,16(r2)
	UAVYaw.Kd = 21;
 4001410:	00c100b4 	movhi	r3,1026
 4001414:	18eb4b04 	addi	r3,r3,-21204
 4001418:	00906a34 	movhi	r2,16808
 400141c:	10800004 	addi	r2,r2,0
 4001420:	18800215 	stw	r2,8(r3)
	UAVYaw.Kf = 0.468;
 4001424:	00c100b4 	movhi	r3,1026
 4001428:	18eb4b04 	addi	r3,r3,-21204
 400142c:	008fbc34 	movhi	r2,16112
 4001430:	10a76c84 	addi	r2,r2,-25166
 4001434:	18800315 	stw	r2,12(r3)
	UAVYaw.Ki = 0;
 4001438:	008100b4 	movhi	r2,1026
 400143c:	10ab4b04 	addi	r2,r2,-21204
 4001440:	10000115 	stw	zero,4(r2)
	UAVYaw.Kp = 408;
 4001444:	00c100b4 	movhi	r3,1026
 4001448:	18eb4b04 	addi	r3,r3,-21204
 400144c:	0090f334 	movhi	r2,17356
 4001450:	10800004 	addi	r2,r2,0
 4001454:	18800015 	stw	r2,0(r3)
	UAVYaw.Kt = 0;
 4001458:	008100b4 	movhi	r2,1026
 400145c:	10ab4b04 	addi	r2,r2,-21204
 4001460:	10000415 	stw	zero,16(r2)
	FILE *fp; // File poiner to uart_0 phjones added


	/**
	 * Bluetooth stuff
	 */
	fp = fopen("/dev/uart_0", "r+"); // Open file for read and write
 4001464:	010100b4 	movhi	r4,1026
 4001468:	2120a804 	addi	r4,r4,-32096
 400146c:	014100b4 	movhi	r5,1026
 4001470:	2960ab04 	addi	r5,r5,-32084
 4001474:	400d1c80 	call	400d1c8 <fopen>
 4001478:	e0bffd15 	stw	r2,-12(fp)
	/*-------------------------------------------
	 Set input to be nonblocking
	 -------------------------------------------*/
	fd = fileno(fp);
 400147c:	e13ffd17 	ldw	r4,-12(fp)
 4001480:	400cf740 	call	400cf74 <fileno>
 4001484:	e0bffb15 	stw	r2,-20(fp)
	fcntl(fd, F_SETFL, O_NONBLOCK);
 4001488:	e13ffb17 	ldw	r4,-20(fp)
 400148c:	01400104 	movi	r5,4
 4001490:	01900004 	movi	r6,16384
 4001494:	4014fb00 	call	4014fb0 <fcntl>
	if (fd != 0)
 4001498:	e0bffb17 	ldw	r2,-20(fp)
 400149c:	1005003a 	cmpeq	r2,r2,zero
 40014a0:	1000011e 	bne	r2,zero,40014a8 <main+0x2b4>
 40014a4:	00000306 	br	40014b4 <main+0x2c0>
	{
		//printf("opened!=%d\n\r", fd);
	}
	else
	{
		printf("NOT opened :-( \n\r");
 40014a8:	010100b4 	movhi	r4,1026
 40014ac:	2120ac04 	addi	r4,r4,-32080
 40014b0:	400e10c0 	call	400e10c <printf>
	}
	initControls();
 40014b4:	400054c0 	call	400054c <initControls>
	while (1)
	{

		while(wantData == 0){
 40014b8:	e0bff917 	ldw	r2,-28(fp)
 40014bc:	1004c03a 	cmpne	r2,r2,zero
 40014c0:	1000ff1e 	bne	r2,zero,40018c0 <main+0x6cc>
			//Start the timestamp
			alt_timestamp_start();
 40014c4:	40169700 	call	4016970 <alt_timestamp_start>
			//The timestampFix is so that we do not have a timestamp value of 0 when the counter rolls over
			timestampFix = 1;//alt_timestamp();
 40014c8:	00800044 	movi	r2,1
 40014cc:	d0a03d15 	stw	r2,-32524(gp)
			startbyte = read(fd,readBuffer,1);
 40014d0:	e17fe304 	addi	r5,fp,-116
 40014d4:	e13ffb17 	ldw	r4,-20(fp)
 40014d8:	01800044 	movi	r6,1
 40014dc:	40158bc0 	call	40158bc <read>
 40014e0:	e0bffa05 	stb	r2,-24(fp)

			if(startbyte > 0){
 40014e4:	e0bffa07 	ldb	r2,-24(fp)
 40014e8:	10800050 	cmplti	r2,r2,1
 40014ec:	1000061e 	bne	r2,zero,4001508 <main+0x314>
				if(readBuffer[0] == -1){
 40014f0:	e0bfe307 	ldb	r2,-116(fp)
 40014f4:	10bfffd8 	cmpnei	r2,r2,-1
 40014f8:	1000031e 	bne	r2,zero,4001508 <main+0x314>
					//printf("Read Start Byte.");
					wantData = 1;
 40014fc:	00800044 	movi	r2,1
 4001500:	e0bff915 	stw	r2,-28(fp)
					break;
 4001504:	0000ee06 	br	40018c0 <main+0x6cc>
				}
			}
			getEstimatedInclination();
 4001508:	4001ab00 	call	4001ab0 <getEstimatedInclination>
			if(manualControl){
 400150c:	d1201417 	ldw	r4,-32688(gp)
 4001510:	000b883a 	mov	r5,zero
 4001514:	400b3e80 	call	400b3e8 <__nesf2>
 4001518:	1004c03a 	cmpne	r2,r2,zero
 400151c:	1000011e 	bne	r2,zero,4001524 <main+0x330>
 4001520:	00001106 	br	4001568 <main+0x374>
				setThrottle(manualThrottle);
 4001524:	d1201217 	ldw	r4,-32696(gp)
 4001528:	400b5000 	call	400b500 <__fixsfsi>
 400152c:	1009883a 	mov	r4,r2
 4001530:	40005940 	call	4000594 <setThrottle>
				setAileron(targetRoll);
 4001534:	d1201117 	ldw	r4,-32700(gp)
 4001538:	400b5000 	call	400b500 <__fixsfsi>
 400153c:	1009883a 	mov	r4,r2
 4001540:	40005c80 	call	40005c8 <setAileron>
				setElevator(targetPitch);
 4001544:	d1201017 	ldw	r4,-32704(gp)
 4001548:	400b5000 	call	400b500 <__fixsfsi>
 400154c:	1009883a 	mov	r4,r2
 4001550:	40006300 	call	4000630 <setElevator>
				setRudder(targetDir);
 4001554:	d1200c17 	ldw	r4,-32720(gp)
 4001558:	400b5000 	call	400b500 <__fixsfsi>
 400155c:	1009883a 	mov	r4,r2
 4001560:	40005fc0 	call	40005fc <setRudder>
 4001564:	003fd406 	br	40014b8 <main+0x2c4>
			}
			else{
				getCorrections(sigCorPtr, curPosAlt, curPosLon, curPosLat, curPosPitch, curPosRoll, curPosYaw, targetDir, curPosAlt, curPosLat,curPosLon, targetPitch, targetRoll);
 4001568:	d0a00917 	ldw	r2,-32732(gp)
 400156c:	d8800015 	stw	r2,0(sp)
 4001570:	d0a00a17 	ldw	r2,-32728(gp)
 4001574:	d8800115 	stw	r2,4(sp)
 4001578:	d0a00b17 	ldw	r2,-32724(gp)
 400157c:	d8800215 	stw	r2,8(sp)
 4001580:	d0a00c17 	ldw	r2,-32720(gp)
 4001584:	d8800315 	stw	r2,12(sp)
 4001588:	d0a00617 	ldw	r2,-32744(gp)
 400158c:	d8800415 	stw	r2,16(sp)
 4001590:	d0a00717 	ldw	r2,-32740(gp)
 4001594:	d8800515 	stw	r2,20(sp)
 4001598:	d0a00817 	ldw	r2,-32736(gp)
 400159c:	d8800615 	stw	r2,24(sp)
 40015a0:	d0a01017 	ldw	r2,-32704(gp)
 40015a4:	d8800715 	stw	r2,28(sp)
 40015a8:	d0a01117 	ldw	r2,-32700(gp)
 40015ac:	d8800815 	stw	r2,32(sp)
 40015b0:	e13fe817 	ldw	r4,-96(fp)
 40015b4:	d1600617 	ldw	r5,-32744(gp)
 40015b8:	d1a00817 	ldw	r6,-32736(gp)
 40015bc:	d1e00717 	ldw	r7,-32740(gp)
 40015c0:	40008ec0 	call	40008ec <getCorrections>
				//printf("\n\n CurPosAlt = %f\n CurPosLat = %f\n CurPosLon= %f\n CurPostPitch = %f\n CurPosRoll = %f\n CurPosYaw = %f\n TargetDir = %f\n TargetPosAlt = %f\n TargetPosLat = %f\n TargetPosLon = %f\n TargetPitch = %f\n TargetRoll = %f\n Manual Throttle = %f\n AutoThrottle = %f\n ManualControl = %f\n",curPosAlt,curPosLat,curPosLon,curPosPitch,curPosRoll,curPosYaw,targetDir, targetPosAlt, targetPosLat,targetPosLon,targetPitch,targetRoll,manualThrottle,autoThrottle,manualControl);
				//printf("\nPitch: %f Roll: %f",curPosPitch, curPosRoll);
				//If we are using auto throttle
				if(autoThrottle != 0){
 40015c4:	d1201317 	ldw	r4,-32692(gp)
 40015c8:	000b883a 	mov	r5,zero
 40015cc:	400b3e80 	call	400b3e8 <__nesf2>
 40015d0:	1004c03a 	cmpne	r2,r2,zero
 40015d4:	1000011e 	bne	r2,zero,40015dc <main+0x3e8>
 40015d8:	00001c06 	br	400164c <main+0x458>
					thrtVal = thrtVal + (sigCorArr[0] / 6.0);
 40015dc:	e13fee17 	ldw	r4,-72(fp)
 40015e0:	400c2fc0 	call	400c2fc <__floatsidf>
 40015e4:	1021883a 	mov	r16,r2
 40015e8:	1823883a 	mov	r17,r3
 40015ec:	e13fe417 	ldw	r4,-112(fp)
 40015f0:	400b5940 	call	400b594 <__extendsfdf2>
 40015f4:	100b883a 	mov	r5,r2
 40015f8:	180d883a 	mov	r6,r3
 40015fc:	2809883a 	mov	r4,r5
 4001600:	300b883a 	mov	r5,r6
 4001604:	000d883a 	mov	r6,zero
 4001608:	01d00634 	movhi	r7,16408
 400160c:	39c00004 	addi	r7,r7,0
 4001610:	400bdf00 	call	400bdf0 <__divdf3>
 4001614:	100f883a 	mov	r7,r2
 4001618:	1811883a 	mov	r8,r3
 400161c:	8009883a 	mov	r4,r16
 4001620:	880b883a 	mov	r5,r17
 4001624:	380d883a 	mov	r6,r7
 4001628:	400f883a 	mov	r7,r8
 400162c:	400b90c0 	call	400b90c <__adddf3>
 4001630:	100b883a 	mov	r5,r2
 4001634:	180d883a 	mov	r6,r3
 4001638:	2809883a 	mov	r4,r5
 400163c:	300b883a 	mov	r5,r6
 4001640:	400c3cc0 	call	400c3cc <__fixdfsi>
 4001644:	e0bfee15 	stw	r2,-72(fp)
 4001648:	00000306 	br	4001658 <main+0x464>
				}
				//If we are using manual throttle just set it to what the manual throttle is
				else{
					thrtVal = manualThrottle;
 400164c:	d1201217 	ldw	r4,-32696(gp)
 4001650:	400b5000 	call	400b500 <__fixsfsi>
 4001654:	e0bfee15 	stw	r2,-72(fp)
				}

				/**
				 * Adjust the values as we need to, got this from the base station code
				 */

				pitchVal = 50 + (sigCorArr[1] / 7.0);
 4001658:	e13fe517 	ldw	r4,-108(fp)
 400165c:	400b5940 	call	400b594 <__extendsfdf2>
 4001660:	100b883a 	mov	r5,r2
 4001664:	180d883a 	mov	r6,r3
 4001668:	2809883a 	mov	r4,r5
 400166c:	300b883a 	mov	r5,r6
 4001670:	000d883a 	mov	r6,zero
 4001674:	01d00734 	movhi	r7,16412
 4001678:	39c00004 	addi	r7,r7,0
 400167c:	400bdf00 	call	400bdf0 <__divdf3>
 4001680:	100b883a 	mov	r5,r2
 4001684:	180d883a 	mov	r6,r3
 4001688:	2809883a 	mov	r4,r5
 400168c:	300b883a 	mov	r5,r6
 4001690:	000d883a 	mov	r6,zero
 4001694:	01d01274 	movhi	r7,16457
 4001698:	39c00004 	addi	r7,r7,0
 400169c:	400b90c0 	call	400b90c <__adddf3>
 40016a0:	100b883a 	mov	r5,r2
 40016a4:	180d883a 	mov	r6,r3
 40016a8:	2809883a 	mov	r4,r5
 40016ac:	300b883a 	mov	r5,r6
 40016b0:	400c3cc0 	call	400c3cc <__fixdfsi>
 40016b4:	e0bfef15 	stw	r2,-68(fp)
				rollVal = 50 + (sigCorArr[2] / 7.0);
 40016b8:	e13fe617 	ldw	r4,-104(fp)
 40016bc:	400b5940 	call	400b594 <__extendsfdf2>
 40016c0:	100b883a 	mov	r5,r2
 40016c4:	180d883a 	mov	r6,r3
 40016c8:	2809883a 	mov	r4,r5
 40016cc:	300b883a 	mov	r5,r6
 40016d0:	000d883a 	mov	r6,zero
 40016d4:	01d00734 	movhi	r7,16412
 40016d8:	39c00004 	addi	r7,r7,0
 40016dc:	400bdf00 	call	400bdf0 <__divdf3>
 40016e0:	100b883a 	mov	r5,r2
 40016e4:	180d883a 	mov	r6,r3
 40016e8:	2809883a 	mov	r4,r5
 40016ec:	300b883a 	mov	r5,r6
 40016f0:	000d883a 	mov	r6,zero
 40016f4:	01d01274 	movhi	r7,16457
 40016f8:	39c00004 	addi	r7,r7,0
 40016fc:	400b90c0 	call	400b90c <__adddf3>
 4001700:	100b883a 	mov	r5,r2
 4001704:	180d883a 	mov	r6,r3
 4001708:	2809883a 	mov	r4,r5
 400170c:	300b883a 	mov	r5,r6
 4001710:	400c3cc0 	call	400c3cc <__fixdfsi>
 4001714:	e0bff015 	stw	r2,-64(fp)
				yawVal = 50 + (sigCorArr[3] / 7.0);
 4001718:	e13fe717 	ldw	r4,-100(fp)
 400171c:	400b5940 	call	400b594 <__extendsfdf2>
 4001720:	100b883a 	mov	r5,r2
 4001724:	180d883a 	mov	r6,r3
 4001728:	2809883a 	mov	r4,r5
 400172c:	300b883a 	mov	r5,r6
 4001730:	000d883a 	mov	r6,zero
 4001734:	01d00734 	movhi	r7,16412
 4001738:	39c00004 	addi	r7,r7,0
 400173c:	400bdf00 	call	400bdf0 <__divdf3>
 4001740:	100b883a 	mov	r5,r2
 4001744:	180d883a 	mov	r6,r3
 4001748:	2809883a 	mov	r4,r5
 400174c:	300b883a 	mov	r5,r6
 4001750:	000d883a 	mov	r6,zero
 4001754:	01d01274 	movhi	r7,16457
 4001758:	39c00004 	addi	r7,r7,0
 400175c:	400b90c0 	call	400b90c <__adddf3>
 4001760:	100b883a 	mov	r5,r2
 4001764:	180d883a 	mov	r6,r3
 4001768:	2809883a 	mov	r4,r5
 400176c:	300b883a 	mov	r5,r6
 4001770:	400c3cc0 	call	400c3cc <__fixdfsi>
 4001774:	e0bff115 	stw	r2,-60(fp)

				/**
				 * Make sure that no values are less than 0 or greater than 100
				 */

				if(thrtVal < 0){
 4001778:	e0bfee17 	ldw	r2,-72(fp)
 400177c:	1004403a 	cmpge	r2,r2,zero
 4001780:	1000011e 	bne	r2,zero,4001788 <main+0x594>
					thrtVal = 0;
 4001784:	e03fee15 	stw	zero,-72(fp)
				}
				if(thrtVal > 100){
 4001788:	e0bfee17 	ldw	r2,-72(fp)
 400178c:	10801950 	cmplti	r2,r2,101
 4001790:	1000021e 	bne	r2,zero,400179c <main+0x5a8>
					thrtVal = 100;
 4001794:	00801904 	movi	r2,100
 4001798:	e0bfee15 	stw	r2,-72(fp)
				}
				if(pitchVal < 0){
 400179c:	e0bfef17 	ldw	r2,-68(fp)
 40017a0:	1004403a 	cmpge	r2,r2,zero
 40017a4:	1000011e 	bne	r2,zero,40017ac <main+0x5b8>
					pitchVal = 0;
 40017a8:	e03fef15 	stw	zero,-68(fp)
				}
				if(pitchVal > 100){
 40017ac:	e0bfef17 	ldw	r2,-68(fp)
 40017b0:	10801950 	cmplti	r2,r2,101
 40017b4:	1000021e 	bne	r2,zero,40017c0 <main+0x5cc>
					pitchVal = 100;
 40017b8:	00801904 	movi	r2,100
 40017bc:	e0bfef15 	stw	r2,-68(fp)
				}
				if(rollVal < 0){
 40017c0:	e0bff017 	ldw	r2,-64(fp)
 40017c4:	1004403a 	cmpge	r2,r2,zero
 40017c8:	1000011e 	bne	r2,zero,40017d0 <main+0x5dc>
					rollVal = 0;
 40017cc:	e03ff015 	stw	zero,-64(fp)
				}
				if(rollVal > 100){
 40017d0:	e0bff017 	ldw	r2,-64(fp)
 40017d4:	10801950 	cmplti	r2,r2,101
 40017d8:	1000021e 	bne	r2,zero,40017e4 <main+0x5f0>
					rollVal = 100;
 40017dc:	00801904 	movi	r2,100
 40017e0:	e0bff015 	stw	r2,-64(fp)
				}
				if(yawVal < 0){
 40017e4:	e0bff117 	ldw	r2,-60(fp)
 40017e8:	1004403a 	cmpge	r2,r2,zero
 40017ec:	1000011e 	bne	r2,zero,40017f4 <main+0x600>
					yawVal = 0;
 40017f0:	e03ff115 	stw	zero,-60(fp)
				}
				if(yawVal > 100){
 40017f4:	e0bff117 	ldw	r2,-60(fp)
 40017f8:	10801950 	cmplti	r2,r2,101
 40017fc:	1000021e 	bne	r2,zero,4001808 <main+0x614>
					yawVal = 100;
 4001800:	00801904 	movi	r2,100
 4001804:	e0bff115 	stw	r2,-60(fp)
				}

				/**
				 * Set the values that we are going to set the motors to
				 */
				RCValuesArr[0] = (thrtVal + thrtTrim);
 4001808:	e13fee17 	ldw	r4,-72(fp)
 400180c:	400b4680 	call	400b468 <__floatsisf>
 4001810:	1009883a 	mov	r4,r2
 4001814:	e17ff217 	ldw	r5,-56(fp)
 4001818:	400afb00 	call	400afb0 <__addsf3>
 400181c:	1009883a 	mov	r4,r2
 4001820:	400b5000 	call	400b500 <__fixsfsi>
 4001824:	e0bfe915 	stw	r2,-92(fp)
				RCValuesArr[1] = (pitchVal + pitchTrim);
 4001828:	e13fef17 	ldw	r4,-68(fp)
 400182c:	400b4680 	call	400b468 <__floatsisf>
 4001830:	1009883a 	mov	r4,r2
 4001834:	e17ff317 	ldw	r5,-52(fp)
 4001838:	400afb00 	call	400afb0 <__addsf3>
 400183c:	1009883a 	mov	r4,r2
 4001840:	400b5000 	call	400b500 <__fixsfsi>
 4001844:	e0bfea15 	stw	r2,-88(fp)
				RCValuesArr[2] = (rollVal + rollTrim);
 4001848:	e13ff017 	ldw	r4,-64(fp)
 400184c:	400b4680 	call	400b468 <__floatsisf>
 4001850:	1009883a 	mov	r4,r2
 4001854:	e17ff417 	ldw	r5,-48(fp)
 4001858:	400afb00 	call	400afb0 <__addsf3>
 400185c:	1009883a 	mov	r4,r2
 4001860:	400b5000 	call	400b500 <__fixsfsi>
 4001864:	e0bfeb15 	stw	r2,-84(fp)
				RCValuesArr[3] = (yawVal + yawTrim);
 4001868:	e13ff117 	ldw	r4,-60(fp)
 400186c:	400b4680 	call	400b468 <__floatsisf>
 4001870:	1009883a 	mov	r4,r2
 4001874:	e17ff517 	ldw	r5,-44(fp)
 4001878:	400afb00 	call	400afb0 <__addsf3>
 400187c:	1009883a 	mov	r4,r2
 4001880:	400b5000 	call	400b500 <__fixsfsi>
 4001884:	e0bfec15 	stw	r2,-80(fp)
				//Write the values back to bluetooth so we can check them
				//TODO Get rid of this when you are confident in the code
				//fwrite(RCValuesPtr, 4* sizeof (int), 1, fp);
				/**
				 * Set the motor values to their perspective values
				 */
				printf("\n throttle:%i     \n rollVal + rollTrim(aileron):%i     \n ", RCValuesArr[0],RCValuesArr[2]);
 4001888:	010100b4 	movhi	r4,1026
 400188c:	2120b104 	addi	r4,r4,-32060
 4001890:	e17fe917 	ldw	r5,-92(fp)
 4001894:	e1bfeb17 	ldw	r6,-84(fp)
 4001898:	400e10c0 	call	400e10c <printf>
				setThrottle(RCValuesArr[0]);
 400189c:	e13fe917 	ldw	r4,-92(fp)
 40018a0:	40005940 	call	4000594 <setThrottle>
				setAileron(RCValuesArr[2]);
 40018a4:	e13feb17 	ldw	r4,-84(fp)
 40018a8:	40005c80 	call	40005c8 <setAileron>
				setElevator(RCValuesArr[1]);
 40018ac:	e13fea17 	ldw	r4,-88(fp)
 40018b0:	40006300 	call	4000630 <setElevator>
				setRudder(RCValuesArr[3]);
 40018b4:	e13fec17 	ldw	r4,-80(fp)
 40018b8:	40005fc0 	call	40005fc <setRudder>
 40018bc:	003efe06 	br	40014b8 <main+0x2c4>
			}
		}
		/* Now start reading the packet */
    	while (numRead < SIZE_OF_DATA_PACKET) {
 40018c0:	e0bff717 	ldw	r2,-36(fp)
 40018c4:	10800f08 	cmpgei	r2,r2,60
 40018c8:	1000111e 	bne	r2,zero,4001910 <main+0x71c>
    		temp = read(fd, byte_ptr, 1);
 40018cc:	e13ffb17 	ldw	r4,-20(fp)
 40018d0:	e17fe217 	ldw	r5,-120(fp)
 40018d4:	01800044 	movi	r6,1
 40018d8:	40158bc0 	call	40158bc <read>
 40018dc:	e0bff815 	stw	r2,-32(fp)

			if (temp > 0) {
 40018e0:	e0bff817 	ldw	r2,-32(fp)
 40018e4:	10800050 	cmplti	r2,r2,1
 40018e8:	103ff51e 	bne	r2,zero,40018c0 <main+0x6cc>
				numRead = numRead + temp;
 40018ec:	e0fff717 	ldw	r3,-36(fp)
 40018f0:	e0bff817 	ldw	r2,-32(fp)
 40018f4:	1885883a 	add	r2,r3,r2
 40018f8:	e0bff715 	stw	r2,-36(fp)
				byte_ptr=byte_ptr+temp;
 40018fc:	e0ffe217 	ldw	r3,-120(fp)
 4001900:	e0bff817 	ldw	r2,-32(fp)
 4001904:	1885883a 	add	r2,r3,r2
 4001908:	e0bfe215 	stw	r2,-120(fp)
 400190c:	003fec06 	br	40018c0 <main+0x6cc>
			}
		}

    	/* We have the whole packet, now the CRC, and timestamp.
    	 * If both check out, we can use this data. */
		while (numRead == SIZE_OF_DATA_PACKET)
 4001910:	e0bff717 	ldw	r2,-36(fp)
 4001914:	10800f18 	cmpnei	r2,r2,60
 4001918:	103ee71e 	bne	r2,zero,40014b8 <main+0x2c4>
		{
			//If we have not gotten here before initialize everything and set the firstTime
			//variable to 0
			if(firstTime == 1){
 400191c:	e0bff617 	ldw	r2,-40(fp)
 4001920:	10800058 	cmpnei	r2,r2,1
 4001924:	1000021e 	bne	r2,zero,4001930 <main+0x73c>
				initializeToZero();
 4001928:	40008840 	call	4000884 <initializeToZero>
				firstTime = 0;
 400192c:	e03ff615 	stw	zero,-40(fp)
			}


			/* READ THE CRC (last 2 bytes) */
			temp = 0;
 4001930:	e03ff815 	stw	zero,-32(fp)
			while(temp < 2){
 4001934:	e0bff817 	ldw	r2,-32(fp)
 4001938:	10800088 	cmpgei	r2,r2,2
 400193c:	10000d1e 	bne	r2,zero,4001974 <main+0x780>
				temp += read(fd, ((void*)&crccheck) + temp, 1);
 4001940:	e0fffc04 	addi	r3,fp,-16
 4001944:	e0bff817 	ldw	r2,-32(fp)
 4001948:	188b883a 	add	r5,r3,r2
 400194c:	e13ffb17 	ldw	r4,-20(fp)
 4001950:	01800044 	movi	r6,1
 4001954:	40158bc0 	call	40158bc <read>
 4001958:	1007883a 	mov	r3,r2
 400195c:	e0bff817 	ldw	r2,-32(fp)
 4001960:	10c5883a 	add	r2,r2,r3
 4001964:	e0bff815 	stw	r2,-32(fp)
				if(temp == -1)
 4001968:	e0bff817 	ldw	r2,-32(fp)
 400196c:	10bfffd8 	cmpnei	r2,r2,-1
 4001970:	103ff01e 	bne	r2,zero,4001934 <main+0x740>
				{
					break;
				}
			}

			/* CHECK THE CRC, ensure data integrity. */
			//printf("CRC CHECKSUM READ: %x\n", crccheck);
			crccheck = CRC((char*)readInto, SIZE_OF_DATA_PACKET, crccheck);
 4001974:	e1bffc0b 	ldhu	r6,-16(fp)
 4001978:	e13fe117 	ldw	r4,-124(fp)
 400197c:	01400f04 	movi	r5,60
 4001980:	4000fe00 	call	4000fe0 <CRC>
 4001984:	e0bffc0d 	sth	r2,-16(fp)
			//printf("REMAINDER CALCULATED: %x\n", crccheck);

			/* Check data integrity, break loop if garbage */
			if(crccheck != 0){
 4001988:	e0bffc0b 	ldhu	r2,-16(fp)
 400198c:	1005003a 	cmpeq	r2,r2,zero
 4001990:	10000a1e 	bne	r2,zero,40019bc <main+0x7c8>
				printf("CRC bad: %x\n", crccheck);
 4001994:	e17ffc0b 	ldhu	r5,-16(fp)
 4001998:	010100b4 	movhi	r4,1026
 400199c:	2120c004 	addi	r4,r4,-32000
 40019a0:	400e10c0 	call	400e10c <printf>
				numRead = 0;
 40019a4:	e03ff715 	stw	zero,-36(fp)
				wantData = 0;
 40019a8:	e03ff915 	stw	zero,-28(fp)
				byte_ptr = (char *) data;
 40019ac:	008100b4 	movhi	r2,1026
 40019b0:	10a2d704 	addi	r2,r2,-29860
 40019b4:	e0bfe215 	stw	r2,-120(fp)
				break;
 40019b8:	003ebf06 	br	40014b8 <main+0x2c4>
			}
			//assign data from basestation
			curPosAlt = data[0];
 40019bc:	008100b4 	movhi	r2,1026
 40019c0:	10a2d704 	addi	r2,r2,-29860
 40019c4:	10800017 	ldw	r2,0(r2)
 40019c8:	d0a00615 	stw	r2,-32744(gp)
			curPosLat = data[1];
 40019cc:	008100b4 	movhi	r2,1026
 40019d0:	10a2d704 	addi	r2,r2,-29860
 40019d4:	10800117 	ldw	r2,4(r2)
 40019d8:	d0a00715 	stw	r2,-32740(gp)
			curPosLon = data[2];
 40019dc:	008100b4 	movhi	r2,1026
 40019e0:	10a2d704 	addi	r2,r2,-29860
 40019e4:	10800217 	ldw	r2,8(r2)
 40019e8:	d0a00815 	stw	r2,-32736(gp)
			//curPosPitch = data[3];
			//curPosRoll = data[4];
			curPosYaw = data[5];
 40019ec:	008100b4 	movhi	r2,1026
 40019f0:	10a2d704 	addi	r2,r2,-29860
 40019f4:	10800517 	ldw	r2,20(r2)
 40019f8:	d0a00b15 	stw	r2,-32724(gp)
			targetDir = data[6];
 40019fc:	008100b4 	movhi	r2,1026
 4001a00:	10a2d704 	addi	r2,r2,-29860
 4001a04:	10800617 	ldw	r2,24(r2)
 4001a08:	d0a00c15 	stw	r2,-32720(gp)
			targetPosAlt = data[7];
 4001a0c:	008100b4 	movhi	r2,1026
 4001a10:	10a2d704 	addi	r2,r2,-29860
 4001a14:	10800717 	ldw	r2,28(r2)
 4001a18:	d0a00d15 	stw	r2,-32716(gp)
			targetPosLat = data[8];
 4001a1c:	008100b4 	movhi	r2,1026
 4001a20:	10a2d704 	addi	r2,r2,-29860
 4001a24:	10800817 	ldw	r2,32(r2)
 4001a28:	d0a00e15 	stw	r2,-32712(gp)
			targetPosLon = data[9];
 4001a2c:	008100b4 	movhi	r2,1026
 4001a30:	10a2d704 	addi	r2,r2,-29860
 4001a34:	10800917 	ldw	r2,36(r2)
 4001a38:	d0a00f15 	stw	r2,-32708(gp)
			targetPitch = data[10];
 4001a3c:	008100b4 	movhi	r2,1026
 4001a40:	10a2d704 	addi	r2,r2,-29860
 4001a44:	10800a17 	ldw	r2,40(r2)
 4001a48:	d0a01015 	stw	r2,-32704(gp)
			targetRoll = data[11];
 4001a4c:	008100b4 	movhi	r2,1026
 4001a50:	10a2d704 	addi	r2,r2,-29860
 4001a54:	10800b17 	ldw	r2,44(r2)
 4001a58:	d0a01115 	stw	r2,-32700(gp)
			manualThrottle = data[12];
 4001a5c:	008100b4 	movhi	r2,1026
 4001a60:	10a2d704 	addi	r2,r2,-29860
 4001a64:	10800c17 	ldw	r2,48(r2)
 4001a68:	d0a01215 	stw	r2,-32696(gp)
			autoThrottle = data[13];
 4001a6c:	008100b4 	movhi	r2,1026
 4001a70:	10a2d704 	addi	r2,r2,-29860
 4001a74:	10800d17 	ldw	r2,52(r2)
 4001a78:	d0a01315 	stw	r2,-32692(gp)
			manualControl = data[14];
 4001a7c:	008100b4 	movhi	r2,1026
 4001a80:	10a2d704 	addi	r2,r2,-29860
 4001a84:	10800e17 	ldw	r2,56(r2)
 4001a88:	d0a01415 	stw	r2,-32688(gp)
			readInto = data;
 4001a8c:	008100b4 	movhi	r2,1026
 4001a90:	10a2d704 	addi	r2,r2,-29860
 4001a94:	e0bfe115 	stw	r2,-124(fp)
			//printf("VALUES RECIEVED\n\n CurPosAlt = %f\n CurPosLat = %f\n CurPosLon= %f\n CurPostPitch = %f\n CurPosRoll = %f\n CurPosYaw = %f\n TargetDir = %f\n TargetPosAlt = %f\n TargetPosLat = %f\n TargetPosLon = %f\n TargetPitch = %f\n TargetRoll = %f\n Manual Throttle = %f\n AutoThrottle = %f\n ManualControl = %f\n",curPosAlt,curPosLat,curPosLon,curPosPitch,curPosRoll,curPosYaw,targetDir, targetPosAlt, targetPosLat,targetPosLon,targetPitch,targetRoll,manualThrottle,autoThrottle,manualControl);
			/**
			 * END LOOP RESETS
			 */
			wantData = 0;
 4001a98:	e03ff915 	stw	zero,-28(fp)
			byte_ptr = (char *) data;
 4001a9c:	008100b4 	movhi	r2,1026
 4001aa0:	10a2d704 	addi	r2,r2,-29860
 4001aa4:	e0bfe215 	stw	r2,-120(fp)
			numRead = 0;
 4001aa8:	e03ff715 	stw	zero,-36(fp)
 4001aac:	003f9806 	br	4001910 <main+0x71c>

04001ab0 <getEstimatedInclination>:
		}
	}

	while (1);

	return 0;
}


void getEstimatedInclination(){
 4001ab0:	defff404 	addi	sp,sp,-48
 4001ab4:	dfc00b15 	stw	ra,44(sp)
 4001ab8:	df000a15 	stw	fp,40(sp)
 4001abc:	dc000915 	stw	r16,36(sp)
 4001ac0:	dc400815 	stw	r17,32(sp)
 4001ac4:	dc800715 	stw	r18,28(sp)
 4001ac8:	dcc00615 	stw	r19,24(sp)
 4001acc:	df000a04 	addi	fp,sp,40
  static int w;
  static float tmpf,tmpf2;
  static char signRzGyro;
  //get raw adc readings
  alt_timestamp_start();
 4001ad0:	40169700 	call	4016970 <alt_timestamp_start>
  alt_timestamp_type currentT = alt_timestamp();//save the time when sample is taken
 4001ad4:	4016a000 	call	4016a00 <alt_timestamp>
 4001ad8:	e0bff615 	stw	r2,-40(fp)
  alt_timestamp_type previousT;
  readUsefulIMU();
 4001adc:	40028340 	call	4002834 <readUsefulIMU>
  //compute interval since last sampling time
  interval = currentT - previousT;    //please note that overflows are ok, since for example 0x0001 - 0x00FE will be equal to 2
 4001ae0:	e0fff617 	ldw	r3,-40(fp)
 4001ae4:	e0bff717 	ldw	r2,-36(fp)
 4001ae8:	1885c83a 	sub	r2,r3,r2
 4001aec:	d0a03915 	stw	r2,-32540(gp)
  previousT = currentT;               //save for next loop, please note interval will be invalid in first sample but we don't use it
 4001af0:	e0bff617 	ldw	r2,-40(fp)
 4001af4:	e0bff715 	stw	r2,-36(fp)


  //get accelerometer readings in g, gives us RwAcc vector
  //Convert ADC value for to physical units see http://starlino.com/imu_guide.html for explanation.
  //For accelerometer it will return  g  (acceleration) , applies when  xyz = 0..2
  //For gyro it will return  deg/ms (rate of rotation)  , applies when xyz = 3..5
  tmpf = currentHeliState.accelX * VDD / 1023.0f;  //voltage (mV)
 4001af8:	008100b4 	movhi	r2,1026
 4001afc:	10ab5504 	addi	r2,r2,-21164
 4001b00:	1100018f 	ldh	r4,6(r2)
 4001b04:	400b4680 	call	400b468 <__floatsisf>
 4001b08:	1009883a 	mov	r4,r2
 4001b0c:	01515434 	movhi	r5,17744
 4001b10:	29480004 	addi	r5,r5,8192
 4001b14:	400b06c0 	call	400b06c <__mulsf3>
 4001b18:	1009883a 	mov	r4,r2
 4001b1c:	01512034 	movhi	r5,17536
 4001b20:	29700004 	addi	r5,r5,-16384
 4001b24:	400b2300 	call	400b230 <__divsf3>
 4001b28:	d0a03515 	stw	r2,-32556(gp)
  tmpf -= 0;  //voltage relative to zero level (mV)
  tmpf /= 400;   //input sensitivity in mV/G(acc) or mV/deg/ms(gyro)
 4001b2c:	d1203517 	ldw	r4,-32556(gp)
 4001b30:	0150f234 	movhi	r5,17352
 4001b34:	29400004 	addi	r5,r5,0
 4001b38:	400b2300 	call	400b230 <__divsf3>
 4001b3c:	d0a03515 	stw	r2,-32556(gp)
  tmpf *= 1;  //invert axis value according to configuration
  RwAcc[0] = tmpf;
 4001b40:	00c100b4 	movhi	r3,1026
 4001b44:	18eb1c04 	addi	r3,r3,-21392
 4001b48:	d0a03517 	ldw	r2,-32556(gp)
 4001b4c:	18800015 	stw	r2,0(r3)
  tmpf = currentHeliState.accelY * VDD / 1023.0f;  //voltage (mV)
 4001b50:	008100b4 	movhi	r2,1026
 4001b54:	10ab5504 	addi	r2,r2,-21164
 4001b58:	1100020f 	ldh	r4,8(r2)
 4001b5c:	400b4680 	call	400b468 <__floatsisf>
 4001b60:	1009883a 	mov	r4,r2
 4001b64:	01515434 	movhi	r5,17744
 4001b68:	29480004 	addi	r5,r5,8192
 4001b6c:	400b06c0 	call	400b06c <__mulsf3>
 4001b70:	1009883a 	mov	r4,r2
 4001b74:	01512034 	movhi	r5,17536
 4001b78:	29700004 	addi	r5,r5,-16384
 4001b7c:	400b2300 	call	400b230 <__divsf3>
 4001b80:	d0a03515 	stw	r2,-32556(gp)
  tmpf -= 0;  //voltage relative to zero level (mV)
  tmpf /= 400;    //input sensitivity in mV/G(acc) or mV/deg/ms(gyro)
 4001b84:	d1203517 	ldw	r4,-32556(gp)
 4001b88:	0150f234 	movhi	r5,17352
 4001b8c:	29400004 	addi	r5,r5,0
 4001b90:	400b2300 	call	400b230 <__divsf3>
 4001b94:	d0a03515 	stw	r2,-32556(gp)
  tmpf *= 1;  //invert axis value according to configuration
  RwAcc[1] = tmpf;
 4001b98:	00c100b4 	movhi	r3,1026
 4001b9c:	18eb1c04 	addi	r3,r3,-21392
 4001ba0:	d0a03517 	ldw	r2,-32556(gp)
 4001ba4:	18800115 	stw	r2,4(r3)
  tmpf = currentHeliState.accelZ * VDD / 1023.0f;  //voltage (mV)
 4001ba8:	008100b4 	movhi	r2,1026
 4001bac:	10ab5504 	addi	r2,r2,-21164
 4001bb0:	1100028f 	ldh	r4,10(r2)
 4001bb4:	400b4680 	call	400b468 <__floatsisf>
 4001bb8:	1009883a 	mov	r4,r2
 4001bbc:	01515434 	movhi	r5,17744
 4001bc0:	29480004 	addi	r5,r5,8192
 4001bc4:	400b06c0 	call	400b06c <__mulsf3>
 4001bc8:	1009883a 	mov	r4,r2
 4001bcc:	01512034 	movhi	r5,17536
 4001bd0:	29700004 	addi	r5,r5,-16384
 4001bd4:	400b2300 	call	400b230 <__divsf3>
 4001bd8:	d0a03515 	stw	r2,-32556(gp)
  tmpf -= 0;  //voltage relative to zero level (mV)
  tmpf /= 400;    //input sensitivity in mV/G(acc) or mV/deg/ms(gyro)
 4001bdc:	d1203517 	ldw	r4,-32556(gp)
 4001be0:	0150f234 	movhi	r5,17352
 4001be4:	29400004 	addi	r5,r5,0
 4001be8:	400b2300 	call	400b230 <__divsf3>
 4001bec:	d0a03515 	stw	r2,-32556(gp)
  tmpf *= 1;  //invert axis value according to configuration
  RwAcc[2] = tmpf;
 4001bf0:	00c100b4 	movhi	r3,1026
 4001bf4:	18eb1c04 	addi	r3,r3,-21392
 4001bf8:	d0a03517 	ldw	r2,-32556(gp)
 4001bfc:	18800215 	stw	r2,8(r3)


  //normalize vector (convert to a vector with same direction and with length 1)
  normalize3DVector(RwAcc);
 4001c00:	010100b4 	movhi	r4,1026
 4001c04:	212b1c04 	addi	r4,r4,-21392
 4001c08:	40010b40 	call	40010b4 <normalize3DVector>

  if (firstSample){
 4001c0c:	d0a00517 	ldw	r2,-32748(gp)
 4001c10:	1005003a 	cmpeq	r2,r2,zero
 4001c14:	1000141e 	bne	r2,zero,4001c68 <getEstimatedInclination+0x1b8>
    for(w=0;w<=2;w++) RwEst[w] = RwAcc[w];    //initialize with accelerometer readings
 4001c18:	d0203415 	stw	zero,-32560(gp)
 4001c1c:	d0a03417 	ldw	r2,-32560(gp)
 4001c20:	108000c8 	cmpgei	r2,r2,3
 4001c24:	1002cf1e 	bne	r2,zero,4002764 <getEstimatedInclination+0xcb4>
 4001c28:	00c100b4 	movhi	r3,1026
 4001c2c:	18eb2704 	addi	r3,r3,-21348
 4001c30:	d0a03417 	ldw	r2,-32560(gp)
 4001c34:	10800124 	muli	r2,r2,4
 4001c38:	10c9883a 	add	r4,r2,r3
 4001c3c:	00c100b4 	movhi	r3,1026
 4001c40:	18eb1c04 	addi	r3,r3,-21392
 4001c44:	d0a03417 	ldw	r2,-32560(gp)
 4001c48:	10800124 	muli	r2,r2,4
 4001c4c:	10c5883a 	add	r2,r2,r3
 4001c50:	10800017 	ldw	r2,0(r2)
 4001c54:	20800015 	stw	r2,0(r4)
 4001c58:	d0a03417 	ldw	r2,-32560(gp)
 4001c5c:	10800044 	addi	r2,r2,1
 4001c60:	d0a03415 	stw	r2,-32560(gp)
 4001c64:	003fed06 	br	4001c1c <getEstimatedInclination+0x16c>
  }else{
    //evaluate RwGyro vector
    if(abs(RwEst[2]) < 0.1){
 4001c68:	008100b4 	movhi	r2,1026
 4001c6c:	10ab2704 	addi	r2,r2,-21348
 4001c70:	11000217 	ldw	r4,8(r2)
 4001c74:	400b5000 	call	400b500 <__fixsfsi>
 4001c78:	e0bff815 	stw	r2,-32(fp)
 4001c7c:	e0fff817 	ldw	r3,-32(fp)
 4001c80:	1804403a 	cmpge	r2,r3,zero
 4001c84:	1000031e 	bne	r2,zero,4001c94 <getEstimatedInclination+0x1e4>
 4001c88:	e0bff817 	ldw	r2,-32(fp)
 4001c8c:	0085c83a 	sub	r2,zero,r2
 4001c90:	e0bff815 	stw	r2,-32(fp)
 4001c94:	e13ff817 	ldw	r4,-32(fp)
 4001c98:	400c2fc0 	call	400c2fc <__floatsidf>
 4001c9c:	100b883a 	mov	r5,r2
 4001ca0:	180d883a 	mov	r6,r3
 4001ca4:	2809883a 	mov	r4,r5
 4001ca8:	300b883a 	mov	r5,r6
 4001cac:	01a666b4 	movhi	r6,39322
 4001cb0:	31a66684 	addi	r6,r6,-26214
 4001cb4:	01cfeeb4 	movhi	r7,16314
 4001cb8:	39e66644 	addi	r7,r7,-26215
 4001cbc:	400c2700 	call	400c270 <__ltdf2>
 4001cc0:	1004803a 	cmplt	r2,r2,zero
 4001cc4:	1000011e 	bne	r2,zero,4001ccc <getEstimatedInclination+0x21c>
 4001cc8:	00001406 	br	4001d1c <getEstimatedInclination+0x26c>
      //Rz is too small and because it is used as reference for computing Axz, Ayz it's error fluctuations will amplify leading to bad results
      //in this case skip the gyro data and just use previous estimate
      for(w=0;w<=2;w++) RwGyro[w] = RwEst[w];
 4001ccc:	d0203415 	stw	zero,-32560(gp)
 4001cd0:	d0a03417 	ldw	r2,-32560(gp)
 4001cd4:	108000c8 	cmpgei	r2,r2,3
 4001cd8:	1002211e 	bne	r2,zero,4002560 <getEstimatedInclination+0xab0>
 4001cdc:	00c100b4 	movhi	r3,1026
 4001ce0:	18eb1f04 	addi	r3,r3,-21380
 4001ce4:	d0a03417 	ldw	r2,-32560(gp)
 4001ce8:	10800124 	muli	r2,r2,4
 4001cec:	10c9883a 	add	r4,r2,r3
 4001cf0:	00c100b4 	movhi	r3,1026
 4001cf4:	18eb2704 	addi	r3,r3,-21348
 4001cf8:	d0a03417 	ldw	r2,-32560(gp)
 4001cfc:	10800124 	muli	r2,r2,4
 4001d00:	10c5883a 	add	r2,r2,r3
 4001d04:	10800017 	ldw	r2,0(r2)
 4001d08:	20800015 	stw	r2,0(r4)
 4001d0c:	d0a03417 	ldw	r2,-32560(gp)
 4001d10:	10800044 	addi	r2,r2,1
 4001d14:	d0a03415 	stw	r2,-32560(gp)
 4001d18:	003fed06 	br	4001cd0 <getEstimatedInclination+0x220>
    }else{
      //get angles between projection of R on ZX/ZY plane and Z axis, based on last RwEst
	  tmpf2 = currentHeliState.gyroX;                         //get current gyro rate in deg/ms
 4001d1c:	008100b4 	movhi	r2,1026
 4001d20:	10ab5504 	addi	r2,r2,-21164
 4001d24:	1100000f 	ldh	r4,0(r2)
 4001d28:	400b4680 	call	400b468 <__floatsisf>
 4001d2c:	d0a03615 	stw	r2,-32552(gp)
	  tmpf2 *= interval / 1000.0f;                     //get angle change in deg
 4001d30:	d0a03917 	ldw	r2,-32540(gp)
 4001d34:	1004803a 	cmplt	r2,r2,zero
 4001d38:	1000041e 	bne	r2,zero,4001d4c <getEstimatedInclination+0x29c>
 4001d3c:	d1203917 	ldw	r4,-32540(gp)
 4001d40:	400b4680 	call	400b468 <__floatsisf>
 4001d44:	e0bff915 	stw	r2,-28(fp)
 4001d48:	00000b06 	br	4001d78 <getEstimatedInclination+0x2c8>
 4001d4c:	d0a03917 	ldw	r2,-32540(gp)
 4001d50:	1100004c 	andi	r4,r2,1
 4001d54:	d0a03917 	ldw	r2,-32540(gp)
 4001d58:	1004d07a 	srli	r2,r2,1
 4001d5c:	2088b03a 	or	r4,r4,r2
 4001d60:	400b4680 	call	400b468 <__floatsisf>
 4001d64:	e0bff915 	stw	r2,-28(fp)
 4001d68:	e13ff917 	ldw	r4,-28(fp)
 4001d6c:	e17ff917 	ldw	r5,-28(fp)
 4001d70:	400afb00 	call	400afb0 <__addsf3>
 4001d74:	e0bff915 	stw	r2,-28(fp)
 4001d78:	e13ff917 	ldw	r4,-28(fp)
 4001d7c:	01511eb4 	movhi	r5,17530
 4001d80:	29400004 	addi	r5,r5,0
 4001d84:	400b2300 	call	400b230 <__divsf3>
 4001d88:	d1203617 	ldw	r4,-32552(gp)
 4001d8c:	100b883a 	mov	r5,r2
 4001d90:	400b06c0 	call	400b06c <__mulsf3>
 4001d94:	d0a03615 	stw	r2,-32552(gp)
	  Awz[0] = atan2(RwEst[0],RwEst[2]) * 180 / PI;   //get angle and convert to degrees
 4001d98:	008100b4 	movhi	r2,1026
 4001d9c:	10ab2704 	addi	r2,r2,-21348
 4001da0:	11000017 	ldw	r4,0(r2)
 4001da4:	400b5940 	call	400b594 <__extendsfdf2>
 4001da8:	1021883a 	mov	r16,r2
 4001dac:	1823883a 	mov	r17,r3
 4001db0:	008100b4 	movhi	r2,1026
 4001db4:	10ab2704 	addi	r2,r2,-21348
 4001db8:	11000217 	ldw	r4,8(r2)
 4001dbc:	400b5940 	call	400b594 <__extendsfdf2>
 4001dc0:	100f883a 	mov	r7,r2
 4001dc4:	1811883a 	mov	r8,r3
 4001dc8:	8009883a 	mov	r4,r16
 4001dcc:	880b883a 	mov	r5,r17
 4001dd0:	380d883a 	mov	r6,r7
 4001dd4:	400f883a 	mov	r7,r8
 4001dd8:	40071c00 	call	40071c0 <atan2>
 4001ddc:	100b883a 	mov	r5,r2
 4001de0:	180d883a 	mov	r6,r3
 4001de4:	2809883a 	mov	r4,r5
 4001de8:	300b883a 	mov	r5,r6
 4001dec:	000d883a 	mov	r6,zero
 4001df0:	01d019f4 	movhi	r7,16487
 4001df4:	39e00004 	addi	r7,r7,-32768
 4001df8:	400b9f00 	call	400b9f0 <__muldf3>
 4001dfc:	100b883a 	mov	r5,r2
 4001e00:	180d883a 	mov	r6,r3
 4001e04:	2809883a 	mov	r4,r5
 4001e08:	300b883a 	mov	r5,r6
 4001e0c:	0194f274 	movhi	r6,21449
 4001e10:	31b53c44 	addi	r6,r6,-11023
 4001e14:	01d00274 	movhi	r7,16393
 4001e18:	39c87ec4 	addi	r7,r7,8699
 4001e1c:	400bdf00 	call	400bdf0 <__divdf3>
 4001e20:	100b883a 	mov	r5,r2
 4001e24:	180d883a 	mov	r6,r3
 4001e28:	2809883a 	mov	r4,r5
 4001e2c:	300b883a 	mov	r5,r6
 4001e30:	400c4bc0 	call	400c4bc <__truncdfsf2>
 4001e34:	d0a03a15 	stw	r2,-32536(gp)
	  Awz[0] += tmpf;                                 //get updated angle according to gyro movement
 4001e38:	d1203a17 	ldw	r4,-32536(gp)
 4001e3c:	d1603517 	ldw	r5,-32556(gp)
 4001e40:	400afb00 	call	400afb0 <__addsf3>
 4001e44:	d0a03a15 	stw	r2,-32536(gp)
	  tmpf2 = currentHeliState.gyroY;                         //get current gyro rate in deg/ms
 4001e48:	008100b4 	movhi	r2,1026
 4001e4c:	10ab5504 	addi	r2,r2,-21164
 4001e50:	1100008f 	ldh	r4,2(r2)
 4001e54:	400b4680 	call	400b468 <__floatsisf>
 4001e58:	d0a03615 	stw	r2,-32552(gp)
	  tmpf2 *= interval / 1000.0f;                     //get angle change in deg
 4001e5c:	d0a03917 	ldw	r2,-32540(gp)
 4001e60:	1004803a 	cmplt	r2,r2,zero
 4001e64:	1000041e 	bne	r2,zero,4001e78 <getEstimatedInclination+0x3c8>
 4001e68:	d1203917 	ldw	r4,-32540(gp)
 4001e6c:	400b4680 	call	400b468 <__floatsisf>
 4001e70:	e0bffa15 	stw	r2,-24(fp)
 4001e74:	00000b06 	br	4001ea4 <getEstimatedInclination+0x3f4>
 4001e78:	d0a03917 	ldw	r2,-32540(gp)
 4001e7c:	1100004c 	andi	r4,r2,1
 4001e80:	d0a03917 	ldw	r2,-32540(gp)
 4001e84:	1004d07a 	srli	r2,r2,1
 4001e88:	2088b03a 	or	r4,r4,r2
 4001e8c:	400b4680 	call	400b468 <__floatsisf>
 4001e90:	e0bffa15 	stw	r2,-24(fp)
 4001e94:	e13ffa17 	ldw	r4,-24(fp)
 4001e98:	e17ffa17 	ldw	r5,-24(fp)
 4001e9c:	400afb00 	call	400afb0 <__addsf3>
 4001ea0:	e0bffa15 	stw	r2,-24(fp)
 4001ea4:	e13ffa17 	ldw	r4,-24(fp)
 4001ea8:	01511eb4 	movhi	r5,17530
 4001eac:	29400004 	addi	r5,r5,0
 4001eb0:	400b2300 	call	400b230 <__divsf3>
 4001eb4:	d1203617 	ldw	r4,-32552(gp)
 4001eb8:	100b883a 	mov	r5,r2
 4001ebc:	400b06c0 	call	400b06c <__mulsf3>
 4001ec0:	d0a03615 	stw	r2,-32552(gp)
	  Awz[1] = atan2(RwEst[1],RwEst[2]) * 180 / PI;   //get angle and convert to degrees
 4001ec4:	008100b4 	movhi	r2,1026
 4001ec8:	10ab2704 	addi	r2,r2,-21348
 4001ecc:	11000117 	ldw	r4,4(r2)
 4001ed0:	400b5940 	call	400b594 <__extendsfdf2>
 4001ed4:	1021883a 	mov	r16,r2
 4001ed8:	1823883a 	mov	r17,r3
 4001edc:	008100b4 	movhi	r2,1026
 4001ee0:	10ab2704 	addi	r2,r2,-21348
 4001ee4:	11000217 	ldw	r4,8(r2)
 4001ee8:	400b5940 	call	400b594 <__extendsfdf2>
 4001eec:	100f883a 	mov	r7,r2
 4001ef0:	1811883a 	mov	r8,r3
 4001ef4:	8009883a 	mov	r4,r16
 4001ef8:	880b883a 	mov	r5,r17
 4001efc:	380d883a 	mov	r6,r7
 4001f00:	400f883a 	mov	r7,r8
 4001f04:	40071c00 	call	40071c0 <atan2>
 4001f08:	100b883a 	mov	r5,r2
 4001f0c:	180d883a 	mov	r6,r3
 4001f10:	2809883a 	mov	r4,r5
 4001f14:	300b883a 	mov	r5,r6
 4001f18:	000d883a 	mov	r6,zero
 4001f1c:	01d019f4 	movhi	r7,16487
 4001f20:	39e00004 	addi	r7,r7,-32768
 4001f24:	400b9f00 	call	400b9f0 <__muldf3>
 4001f28:	100b883a 	mov	r5,r2
 4001f2c:	180d883a 	mov	r6,r3
 4001f30:	2809883a 	mov	r4,r5
 4001f34:	300b883a 	mov	r5,r6
 4001f38:	0194f274 	movhi	r6,21449
 4001f3c:	31b53c44 	addi	r6,r6,-11023
 4001f40:	01d00274 	movhi	r7,16393
 4001f44:	39c87ec4 	addi	r7,r7,8699
 4001f48:	400bdf00 	call	400bdf0 <__divdf3>
 4001f4c:	100b883a 	mov	r5,r2
 4001f50:	180d883a 	mov	r6,r3
 4001f54:	2809883a 	mov	r4,r5
 4001f58:	300b883a 	mov	r5,r6
 4001f5c:	400c4bc0 	call	400c4bc <__truncdfsf2>
 4001f60:	1007883a 	mov	r3,r2
 4001f64:	008100b4 	movhi	r2,1026
 4001f68:	10aaad04 	addi	r2,r2,-21836
 4001f6c:	10c00015 	stw	r3,0(r2)
      Awz[1] += tmpf;                                 //get updated angle according to gyro movement
 4001f70:	008100b4 	movhi	r2,1026
 4001f74:	10aaad04 	addi	r2,r2,-21836
 4001f78:	11000017 	ldw	r4,0(r2)
 4001f7c:	d1603517 	ldw	r5,-32556(gp)
 4001f80:	400afb00 	call	400afb0 <__addsf3>
 4001f84:	1007883a 	mov	r3,r2
 4001f88:	008100b4 	movhi	r2,1026
 4001f8c:	10aaad04 	addi	r2,r2,-21836
 4001f90:	10c00015 	stw	r3,0(r2)

      //estimate sign of RzGyro by looking in what qudrant the angle Axz is,
      //RzGyro is pozitive if  Axz in range -90 ..90 => cos(Awz) >= 0
      signRzGyro = ( cos(Awz[0] * PI / 180) >=0 ) ? 1 : -1;
 4001f94:	d1203a17 	ldw	r4,-32536(gp)
 4001f98:	400b5940 	call	400b594 <__extendsfdf2>
 4001f9c:	100b883a 	mov	r5,r2
 4001fa0:	180d883a 	mov	r6,r3
 4001fa4:	2809883a 	mov	r4,r5
 4001fa8:	300b883a 	mov	r5,r6
 4001fac:	0194f274 	movhi	r6,21449
 4001fb0:	31b53c44 	addi	r6,r6,-11023
 4001fb4:	01d00274 	movhi	r7,16393
 4001fb8:	39c87ec4 	addi	r7,r7,8699
 4001fbc:	400b9f00 	call	400b9f0 <__muldf3>
 4001fc0:	100b883a 	mov	r5,r2
 4001fc4:	180d883a 	mov	r6,r3
 4001fc8:	2809883a 	mov	r4,r5
 4001fcc:	300b883a 	mov	r5,r6
 4001fd0:	000d883a 	mov	r6,zero
 4001fd4:	01d019f4 	movhi	r7,16487
 4001fd8:	39e00004 	addi	r7,r7,-32768
 4001fdc:	400bdf00 	call	400bdf0 <__divdf3>
 4001fe0:	100b883a 	mov	r5,r2
 4001fe4:	180d883a 	mov	r6,r3
 4001fe8:	2809883a 	mov	r4,r5
 4001fec:	300b883a 	mov	r5,r6
 4001ff0:	4006ccc0 	call	4006ccc <cos>
 4001ff4:	1009883a 	mov	r4,r2
 4001ff8:	180b883a 	mov	r5,r3
 4001ffc:	2005883a 	mov	r2,r4
 4002000:	2807883a 	mov	r3,r5
 4002004:	1009883a 	mov	r4,r2
 4002008:	180b883a 	mov	r5,r3
 400200c:	000d883a 	mov	r6,zero
 4002010:	000f883a 	mov	r7,zero
 4002014:	400c1e40 	call	400c1e4 <__gedf2>
 4002018:	1004403a 	cmpge	r2,r2,zero
 400201c:	1000011e 	bne	r2,zero,4002024 <getEstimatedInclination+0x574>
 4002020:	00000306 	br	4002030 <getEstimatedInclination+0x580>
 4002024:	00c00044 	movi	r3,1
 4002028:	e0fffb05 	stb	r3,-20(fp)
 400202c:	00000206 	br	4002038 <getEstimatedInclination+0x588>
 4002030:	00bfffc4 	movi	r2,-1
 4002034:	e0bffb05 	stb	r2,-20(fp)
 4002038:	e0fffb03 	ldbu	r3,-20(fp)
 400203c:	d0e03705 	stb	r3,-32548(gp)

      //reverse calculation of RwGyro from Awz angles, for formulas deductions see  http://starlino.com/imu_guide.html
      for(w=0;w<=1;w++){
 4002040:	d0203415 	stw	zero,-32560(gp)
 4002044:	d0a03417 	ldw	r2,-32560(gp)
 4002048:	10800088 	cmpgei	r2,r2,2
 400204c:	10011a1e 	bne	r2,zero,40024b8 <getEstimatedInclination+0xa08>
        RwGyro[0] = sin(Awz[0] * PI / 180);
 4002050:	040100b4 	movhi	r16,1026
 4002054:	842b1f04 	addi	r16,r16,-21380
 4002058:	d1203a17 	ldw	r4,-32536(gp)
 400205c:	400b5940 	call	400b594 <__extendsfdf2>
 4002060:	100b883a 	mov	r5,r2
 4002064:	180d883a 	mov	r6,r3
 4002068:	2809883a 	mov	r4,r5
 400206c:	300b883a 	mov	r5,r6
 4002070:	0194f274 	movhi	r6,21449
 4002074:	31b53c44 	addi	r6,r6,-11023
 4002078:	01d00274 	movhi	r7,16393
 400207c:	39c87ec4 	addi	r7,r7,8699
 4002080:	400b9f00 	call	400b9f0 <__muldf3>
 4002084:	100b883a 	mov	r5,r2
 4002088:	180d883a 	mov	r6,r3
 400208c:	2809883a 	mov	r4,r5
 4002090:	300b883a 	mov	r5,r6
 4002094:	000d883a 	mov	r6,zero
 4002098:	01d019f4 	movhi	r7,16487
 400209c:	39e00004 	addi	r7,r7,-32768
 40020a0:	400bdf00 	call	400bdf0 <__divdf3>
 40020a4:	100b883a 	mov	r5,r2
 40020a8:	180d883a 	mov	r6,r3
 40020ac:	2809883a 	mov	r4,r5
 40020b0:	300b883a 	mov	r5,r6
 40020b4:	4006e540 	call	4006e54 <sin>
 40020b8:	1009883a 	mov	r4,r2
 40020bc:	180b883a 	mov	r5,r3
 40020c0:	2005883a 	mov	r2,r4
 40020c4:	2807883a 	mov	r3,r5
 40020c8:	1009883a 	mov	r4,r2
 40020cc:	180b883a 	mov	r5,r3
 40020d0:	400c4bc0 	call	400c4bc <__truncdfsf2>
 40020d4:	80800015 	stw	r2,0(r16)
        RwGyro[0] /= sqrt( 1 + squared(cos(Awz[0] * PI / 180)) * squared(tan(Awz[1] * PI / 180)) );
 40020d8:	048100b4 	movhi	r18,1026
 40020dc:	94ab1f04 	addi	r18,r18,-21380
 40020e0:	008100b4 	movhi	r2,1026
 40020e4:	10ab1f04 	addi	r2,r2,-21380
 40020e8:	11000017 	ldw	r4,0(r2)
 40020ec:	400b5940 	call	400b594 <__extendsfdf2>
 40020f0:	1021883a 	mov	r16,r2
 40020f4:	1823883a 	mov	r17,r3
 40020f8:	d1203a17 	ldw	r4,-32536(gp)
 40020fc:	400b5940 	call	400b594 <__extendsfdf2>
 4002100:	100b883a 	mov	r5,r2
 4002104:	180d883a 	mov	r6,r3
 4002108:	2809883a 	mov	r4,r5
 400210c:	300b883a 	mov	r5,r6
 4002110:	0194f274 	movhi	r6,21449
 4002114:	31b53c44 	addi	r6,r6,-11023
 4002118:	01d00274 	movhi	r7,16393
 400211c:	39c87ec4 	addi	r7,r7,8699
 4002120:	400b9f00 	call	400b9f0 <__muldf3>
 4002124:	100b883a 	mov	r5,r2
 4002128:	180d883a 	mov	r6,r3
 400212c:	2809883a 	mov	r4,r5
 4002130:	300b883a 	mov	r5,r6
 4002134:	000d883a 	mov	r6,zero
 4002138:	01d019f4 	movhi	r7,16487
 400213c:	39e00004 	addi	r7,r7,-32768
 4002140:	400bdf00 	call	400bdf0 <__divdf3>
 4002144:	100b883a 	mov	r5,r2
 4002148:	180d883a 	mov	r6,r3
 400214c:	2809883a 	mov	r4,r5
 4002150:	300b883a 	mov	r5,r6
 4002154:	4006ccc0 	call	4006ccc <cos>
 4002158:	1009883a 	mov	r4,r2
 400215c:	180b883a 	mov	r5,r3
 4002160:	2005883a 	mov	r2,r4
 4002164:	2807883a 	mov	r3,r5
 4002168:	1009883a 	mov	r4,r2
 400216c:	180b883a 	mov	r5,r3
 4002170:	400c4bc0 	call	400c4bc <__truncdfsf2>
 4002174:	1009883a 	mov	r4,r2
 4002178:	40011c40 	call	40011c4 <squared>
 400217c:	1027883a 	mov	r19,r2
 4002180:	008100b4 	movhi	r2,1026
 4002184:	10aaad04 	addi	r2,r2,-21836
 4002188:	11000017 	ldw	r4,0(r2)
 400218c:	400b5940 	call	400b594 <__extendsfdf2>
 4002190:	100b883a 	mov	r5,r2
 4002194:	180d883a 	mov	r6,r3
 4002198:	2809883a 	mov	r4,r5
 400219c:	300b883a 	mov	r5,r6
 40021a0:	0194f274 	movhi	r6,21449
 40021a4:	31b53c44 	addi	r6,r6,-11023
 40021a8:	01d00274 	movhi	r7,16393
 40021ac:	39c87ec4 	addi	r7,r7,8699
 40021b0:	400b9f00 	call	400b9f0 <__muldf3>
 40021b4:	100b883a 	mov	r5,r2
 40021b8:	180d883a 	mov	r6,r3
 40021bc:	2809883a 	mov	r4,r5
 40021c0:	300b883a 	mov	r5,r6
 40021c4:	000d883a 	mov	r6,zero
 40021c8:	01d019f4 	movhi	r7,16487
 40021cc:	39e00004 	addi	r7,r7,-32768
 40021d0:	400bdf00 	call	400bdf0 <__divdf3>
 40021d4:	100b883a 	mov	r5,r2
 40021d8:	180d883a 	mov	r6,r3
 40021dc:	2809883a 	mov	r4,r5
 40021e0:	300b883a 	mov	r5,r6
 40021e4:	4006fc40 	call	4006fc4 <tan>
 40021e8:	1009883a 	mov	r4,r2
 40021ec:	180b883a 	mov	r5,r3
 40021f0:	2005883a 	mov	r2,r4
 40021f4:	2807883a 	mov	r3,r5
 40021f8:	1009883a 	mov	r4,r2
 40021fc:	180b883a 	mov	r5,r3
 4002200:	400c4bc0 	call	400c4bc <__truncdfsf2>
 4002204:	1009883a 	mov	r4,r2
 4002208:	40011c40 	call	40011c4 <squared>
 400220c:	9809883a 	mov	r4,r19
 4002210:	100b883a 	mov	r5,r2
 4002214:	400b06c0 	call	400b06c <__mulsf3>
 4002218:	1009883a 	mov	r4,r2
 400221c:	014fe034 	movhi	r5,16256
 4002220:	29400004 	addi	r5,r5,0
 4002224:	400afb00 	call	400afb0 <__addsf3>
 4002228:	1009883a 	mov	r4,r2
 400222c:	400b5940 	call	400b594 <__extendsfdf2>
 4002230:	100b883a 	mov	r5,r2
 4002234:	180d883a 	mov	r6,r3
 4002238:	2809883a 	mov	r4,r5
 400223c:	300b883a 	mov	r5,r6
 4002240:	40073140 	call	4007314 <sqrt>
 4002244:	100f883a 	mov	r7,r2
 4002248:	1811883a 	mov	r8,r3
 400224c:	8009883a 	mov	r4,r16
 4002250:	880b883a 	mov	r5,r17
 4002254:	380d883a 	mov	r6,r7
 4002258:	400f883a 	mov	r7,r8
 400225c:	400bdf00 	call	400bdf0 <__divdf3>
 4002260:	100b883a 	mov	r5,r2
 4002264:	180d883a 	mov	r6,r3
 4002268:	2809883a 	mov	r4,r5
 400226c:	300b883a 	mov	r5,r6
 4002270:	400c4bc0 	call	400c4bc <__truncdfsf2>
 4002274:	90800015 	stw	r2,0(r18)
        RwGyro[1] = sin(Awz[1] * PI / 180);
 4002278:	040100b4 	movhi	r16,1026
 400227c:	842b1f04 	addi	r16,r16,-21380
 4002280:	008100b4 	movhi	r2,1026
 4002284:	10aaad04 	addi	r2,r2,-21836
 4002288:	11000017 	ldw	r4,0(r2)
 400228c:	400b5940 	call	400b594 <__extendsfdf2>
 4002290:	100b883a 	mov	r5,r2
 4002294:	180d883a 	mov	r6,r3
 4002298:	2809883a 	mov	r4,r5
 400229c:	300b883a 	mov	r5,r6
 40022a0:	0194f274 	movhi	r6,21449
 40022a4:	31b53c44 	addi	r6,r6,-11023
 40022a8:	01d00274 	movhi	r7,16393
 40022ac:	39c87ec4 	addi	r7,r7,8699
 40022b0:	400b9f00 	call	400b9f0 <__muldf3>
 40022b4:	100b883a 	mov	r5,r2
 40022b8:	180d883a 	mov	r6,r3
 40022bc:	2809883a 	mov	r4,r5
 40022c0:	300b883a 	mov	r5,r6
 40022c4:	000d883a 	mov	r6,zero
 40022c8:	01d019f4 	movhi	r7,16487
 40022cc:	39e00004 	addi	r7,r7,-32768
 40022d0:	400bdf00 	call	400bdf0 <__divdf3>
 40022d4:	100b883a 	mov	r5,r2
 40022d8:	180d883a 	mov	r6,r3
 40022dc:	2809883a 	mov	r4,r5
 40022e0:	300b883a 	mov	r5,r6
 40022e4:	4006e540 	call	4006e54 <sin>
 40022e8:	1009883a 	mov	r4,r2
 40022ec:	180b883a 	mov	r5,r3
 40022f0:	2005883a 	mov	r2,r4
 40022f4:	2807883a 	mov	r3,r5
 40022f8:	1009883a 	mov	r4,r2
 40022fc:	180b883a 	mov	r5,r3
 4002300:	400c4bc0 	call	400c4bc <__truncdfsf2>
 4002304:	80800115 	stw	r2,4(r16)
        RwGyro[1] /= sqrt( 1 + squared(cos(Awz[1] * PI / 180)) * squared(tan(Awz[0] * PI / 180)) );
 4002308:	048100b4 	movhi	r18,1026
 400230c:	94ab1f04 	addi	r18,r18,-21380
 4002310:	008100b4 	movhi	r2,1026
 4002314:	10ab1f04 	addi	r2,r2,-21380
 4002318:	11000117 	ldw	r4,4(r2)
 400231c:	400b5940 	call	400b594 <__extendsfdf2>
 4002320:	1021883a 	mov	r16,r2
 4002324:	1823883a 	mov	r17,r3
 4002328:	008100b4 	movhi	r2,1026
 400232c:	10aaad04 	addi	r2,r2,-21836
 4002330:	11000017 	ldw	r4,0(r2)
 4002334:	400b5940 	call	400b594 <__extendsfdf2>
 4002338:	100b883a 	mov	r5,r2
 400233c:	180d883a 	mov	r6,r3
 4002340:	2809883a 	mov	r4,r5
 4002344:	300b883a 	mov	r5,r6
 4002348:	0194f274 	movhi	r6,21449
 400234c:	31b53c44 	addi	r6,r6,-11023
 4002350:	01d00274 	movhi	r7,16393
 4002354:	39c87ec4 	addi	r7,r7,8699
 4002358:	400b9f00 	call	400b9f0 <__muldf3>
 400235c:	100b883a 	mov	r5,r2
 4002360:	180d883a 	mov	r6,r3
 4002364:	2809883a 	mov	r4,r5
 4002368:	300b883a 	mov	r5,r6
 400236c:	000d883a 	mov	r6,zero
 4002370:	01d019f4 	movhi	r7,16487
 4002374:	39e00004 	addi	r7,r7,-32768
 4002378:	400bdf00 	call	400bdf0 <__divdf3>
 400237c:	100b883a 	mov	r5,r2
 4002380:	180d883a 	mov	r6,r3
 4002384:	2809883a 	mov	r4,r5
 4002388:	300b883a 	mov	r5,r6
 400238c:	4006ccc0 	call	4006ccc <cos>
 4002390:	1009883a 	mov	r4,r2
 4002394:	180b883a 	mov	r5,r3
 4002398:	2005883a 	mov	r2,r4
 400239c:	2807883a 	mov	r3,r5
 40023a0:	1009883a 	mov	r4,r2
 40023a4:	180b883a 	mov	r5,r3
 40023a8:	400c4bc0 	call	400c4bc <__truncdfsf2>
 40023ac:	1009883a 	mov	r4,r2
 40023b0:	40011c40 	call	40011c4 <squared>
 40023b4:	1027883a 	mov	r19,r2
 40023b8:	d1203a17 	ldw	r4,-32536(gp)
 40023bc:	400b5940 	call	400b594 <__extendsfdf2>
 40023c0:	100b883a 	mov	r5,r2
 40023c4:	180d883a 	mov	r6,r3
 40023c8:	2809883a 	mov	r4,r5
 40023cc:	300b883a 	mov	r5,r6
 40023d0:	0194f274 	movhi	r6,21449
 40023d4:	31b53c44 	addi	r6,r6,-11023
 40023d8:	01d00274 	movhi	r7,16393
 40023dc:	39c87ec4 	addi	r7,r7,8699
 40023e0:	400b9f00 	call	400b9f0 <__muldf3>
 40023e4:	100b883a 	mov	r5,r2
 40023e8:	180d883a 	mov	r6,r3
 40023ec:	2809883a 	mov	r4,r5
 40023f0:	300b883a 	mov	r5,r6
 40023f4:	000d883a 	mov	r6,zero
 40023f8:	01d019f4 	movhi	r7,16487
 40023fc:	39e00004 	addi	r7,r7,-32768
 4002400:	400bdf00 	call	400bdf0 <__divdf3>
 4002404:	100b883a 	mov	r5,r2
 4002408:	180d883a 	mov	r6,r3
 400240c:	2809883a 	mov	r4,r5
 4002410:	300b883a 	mov	r5,r6
 4002414:	4006fc40 	call	4006fc4 <tan>
 4002418:	1009883a 	mov	r4,r2
 400241c:	180b883a 	mov	r5,r3
 4002420:	2005883a 	mov	r2,r4
 4002424:	2807883a 	mov	r3,r5
 4002428:	1009883a 	mov	r4,r2
 400242c:	180b883a 	mov	r5,r3
 4002430:	400c4bc0 	call	400c4bc <__truncdfsf2>
 4002434:	1009883a 	mov	r4,r2
 4002438:	40011c40 	call	40011c4 <squared>
 400243c:	9809883a 	mov	r4,r19
 4002440:	100b883a 	mov	r5,r2
 4002444:	400b06c0 	call	400b06c <__mulsf3>
 4002448:	1009883a 	mov	r4,r2
 400244c:	014fe034 	movhi	r5,16256
 4002450:	29400004 	addi	r5,r5,0
 4002454:	400afb00 	call	400afb0 <__addsf3>
 4002458:	1009883a 	mov	r4,r2
 400245c:	400b5940 	call	400b594 <__extendsfdf2>
 4002460:	100b883a 	mov	r5,r2
 4002464:	180d883a 	mov	r6,r3
 4002468:	2809883a 	mov	r4,r5
 400246c:	300b883a 	mov	r5,r6
 4002470:	40073140 	call	4007314 <sqrt>
 4002474:	100f883a 	mov	r7,r2
 4002478:	1811883a 	mov	r8,r3
 400247c:	8009883a 	mov	r4,r16
 4002480:	880b883a 	mov	r5,r17
 4002484:	380d883a 	mov	r6,r7
 4002488:	400f883a 	mov	r7,r8
 400248c:	400bdf00 	call	400bdf0 <__divdf3>
 4002490:	100b883a 	mov	r5,r2
 4002494:	180d883a 	mov	r6,r3
 4002498:	2809883a 	mov	r4,r5
 400249c:	300b883a 	mov	r5,r6
 40024a0:	400c4bc0 	call	400c4bc <__truncdfsf2>
 40024a4:	90800115 	stw	r2,4(r18)
 40024a8:	d0a03417 	ldw	r2,-32560(gp)
 40024ac:	10800044 	addi	r2,r2,1
 40024b0:	d0a03415 	stw	r2,-32560(gp)
 40024b4:	003ee306 	br	4002044 <getEstimatedInclination+0x594>
      }
      RwGyro[2] = signRzGyro * sqrt(1 - squared(RwGyro[0]) - squared(RwGyro[1]));
 40024b8:	04c100b4 	movhi	r19,1026
 40024bc:	9ceb1f04 	addi	r19,r19,-21380
 40024c0:	d1203707 	ldb	r4,-32548(gp)
 40024c4:	400c2fc0 	call	400c2fc <__floatsidf>
 40024c8:	1021883a 	mov	r16,r2
 40024cc:	1823883a 	mov	r17,r3
 40024d0:	008100b4 	movhi	r2,1026
 40024d4:	10ab1f04 	addi	r2,r2,-21380
 40024d8:	11000017 	ldw	r4,0(r2)
 40024dc:	40011c40 	call	40011c4 <squared>
 40024e0:	010fe034 	movhi	r4,16256
 40024e4:	21000004 	addi	r4,r4,0
 40024e8:	100b883a 	mov	r5,r2
 40024ec:	400b0080 	call	400b008 <__subsf3>
 40024f0:	1025883a 	mov	r18,r2
 40024f4:	008100b4 	movhi	r2,1026
 40024f8:	10ab1f04 	addi	r2,r2,-21380
 40024fc:	11000117 	ldw	r4,4(r2)
 4002500:	40011c40 	call	40011c4 <squared>
 4002504:	9009883a 	mov	r4,r18
 4002508:	100b883a 	mov	r5,r2
 400250c:	400b0080 	call	400b008 <__subsf3>
 4002510:	1009883a 	mov	r4,r2
 4002514:	400b5940 	call	400b594 <__extendsfdf2>
 4002518:	100b883a 	mov	r5,r2
 400251c:	180d883a 	mov	r6,r3
 4002520:	2809883a 	mov	r4,r5
 4002524:	300b883a 	mov	r5,r6
 4002528:	40073140 	call	4007314 <sqrt>
 400252c:	100f883a 	mov	r7,r2
 4002530:	1811883a 	mov	r8,r3
 4002534:	8009883a 	mov	r4,r16
 4002538:	880b883a 	mov	r5,r17
 400253c:	380d883a 	mov	r6,r7
 4002540:	400f883a 	mov	r7,r8
 4002544:	400b9f00 	call	400b9f0 <__muldf3>
 4002548:	100b883a 	mov	r5,r2
 400254c:	180d883a 	mov	r6,r3
 4002550:	2809883a 	mov	r4,r5
 4002554:	300b883a 	mov	r5,r6
 4002558:	400c4bc0 	call	400c4bc <__truncdfsf2>
 400255c:	98800215 	stw	r2,8(r19)
    }

    //combine Accelerometer and gyro readings        readUsefulIMU();

    for(w=0;w<=2;w++) RwEst[w] = (RwAcc[w] + 10* RwGyro[w]) / (1 + 10);
 4002560:	d0203415 	stw	zero,-32560(gp)
 4002564:	d0a03417 	ldw	r2,-32560(gp)
 4002568:	108000c8 	cmpgei	r2,r2,3
 400256c:	10001f1e 	bne	r2,zero,40025ec <getEstimatedInclination+0xb3c>
 4002570:	00c100b4 	movhi	r3,1026
 4002574:	18eb2704 	addi	r3,r3,-21348
 4002578:	d0a03417 	ldw	r2,-32560(gp)
 400257c:	10800124 	muli	r2,r2,4
 4002580:	10e3883a 	add	r17,r2,r3
 4002584:	00c100b4 	movhi	r3,1026
 4002588:	18eb1c04 	addi	r3,r3,-21392
 400258c:	d0a03417 	ldw	r2,-32560(gp)
 4002590:	10800124 	muli	r2,r2,4
 4002594:	10e1883a 	add	r16,r2,r3
 4002598:	00c100b4 	movhi	r3,1026
 400259c:	18eb1f04 	addi	r3,r3,-21380
 40025a0:	d0a03417 	ldw	r2,-32560(gp)
 40025a4:	10800124 	muli	r2,r2,4
 40025a8:	10c5883a 	add	r2,r2,r3
 40025ac:	11000017 	ldw	r4,0(r2)
 40025b0:	01504834 	movhi	r5,16672
 40025b4:	29400004 	addi	r5,r5,0
 40025b8:	400b06c0 	call	400b06c <__mulsf3>
 40025bc:	1009883a 	mov	r4,r2
 40025c0:	81400017 	ldw	r5,0(r16)
 40025c4:	400afb00 	call	400afb0 <__addsf3>
 40025c8:	1009883a 	mov	r4,r2
 40025cc:	01504c34 	movhi	r5,16688
 40025d0:	29400004 	addi	r5,r5,0
 40025d4:	400b2300 	call	400b230 <__divsf3>
 40025d8:	88800015 	stw	r2,0(r17)
 40025dc:	d0a03417 	ldw	r2,-32560(gp)
 40025e0:	10800044 	addi	r2,r2,1
 40025e4:	d0a03415 	stw	r2,-32560(gp)
 40025e8:	003fde06 	br	4002564 <getEstimatedInclination+0xab4>
    normalize3DVector(RwEst);
 40025ec:	010100b4 	movhi	r4,1026
 40025f0:	212b2704 	addi	r4,r4,-21348
 40025f4:	40010b40 	call	40010b4 <normalize3DVector>
    //RwEst[0] = atan2(RwEst[0],RwEst[2]);
    //RwEst[1] = atan2(RwEst[1],(squared(RwEst[2])+squared(RwEst[0]))/sqrt(squared(RwEst[2])+squared(RwEst[0])));
    //RwEst[2] = atan2(RwEst[0],RwEst[1]);
    curPosPitch = -atan(RwEst[0]/sqrt(squared(RwEst[1]) + squared(RwEst[2])));
 40025f8:	008100b4 	movhi	r2,1026
 40025fc:	10ab2704 	addi	r2,r2,-21348
 4002600:	11000017 	ldw	r4,0(r2)
 4002604:	400b5940 	call	400b594 <__extendsfdf2>
 4002608:	1021883a 	mov	r16,r2
 400260c:	1823883a 	mov	r17,r3
 4002610:	008100b4 	movhi	r2,1026
 4002614:	10ab2704 	addi	r2,r2,-21348
 4002618:	11000117 	ldw	r4,4(r2)
 400261c:	40011c40 	call	40011c4 <squared>
 4002620:	1025883a 	mov	r18,r2
 4002624:	008100b4 	movhi	r2,1026
 4002628:	10ab2704 	addi	r2,r2,-21348
 400262c:	11000217 	ldw	r4,8(r2)
 4002630:	40011c40 	call	40011c4 <squared>
 4002634:	9009883a 	mov	r4,r18
 4002638:	100b883a 	mov	r5,r2
 400263c:	400afb00 	call	400afb0 <__addsf3>
 4002640:	1009883a 	mov	r4,r2
 4002644:	400b5940 	call	400b594 <__extendsfdf2>
 4002648:	100b883a 	mov	r5,r2
 400264c:	180d883a 	mov	r6,r3
 4002650:	2809883a 	mov	r4,r5
 4002654:	300b883a 	mov	r5,r6
 4002658:	40073140 	call	4007314 <sqrt>
 400265c:	100f883a 	mov	r7,r2
 4002660:	1811883a 	mov	r8,r3
 4002664:	8009883a 	mov	r4,r16
 4002668:	880b883a 	mov	r5,r17
 400266c:	380d883a 	mov	r6,r7
 4002670:	400f883a 	mov	r7,r8
 4002674:	400bdf00 	call	400bdf0 <__divdf3>
 4002678:	100b883a 	mov	r5,r2
 400267c:	180d883a 	mov	r6,r3
 4002680:	2809883a 	mov	r4,r5
 4002684:	300b883a 	mov	r5,r6
 4002688:	40065b80 	call	40065b8 <atan>
 400268c:	1009883a 	mov	r4,r2
 4002690:	180b883a 	mov	r5,r3
 4002694:	2005883a 	mov	r2,r4
 4002698:	2807883a 	mov	r3,r5
 400269c:	1009883a 	mov	r4,r2
 40026a0:	180b883a 	mov	r5,r3
 40026a4:	400c4bc0 	call	400c4bc <__truncdfsf2>
 40026a8:	10a0003c 	xorhi	r2,r2,32768
 40026ac:	d0a00915 	stw	r2,-32732(gp)
    curPosRoll =atan(RwEst[1]/sqrt(squared(RwEst[0]) + squared(RwEst[2])));
 40026b0:	008100b4 	movhi	r2,1026
 40026b4:	10ab2704 	addi	r2,r2,-21348
 40026b8:	11000117 	ldw	r4,4(r2)
 40026bc:	400b5940 	call	400b594 <__extendsfdf2>
 40026c0:	1021883a 	mov	r16,r2
 40026c4:	1823883a 	mov	r17,r3
 40026c8:	008100b4 	movhi	r2,1026
 40026cc:	10ab2704 	addi	r2,r2,-21348
 40026d0:	11000017 	ldw	r4,0(r2)
 40026d4:	40011c40 	call	40011c4 <squared>
 40026d8:	1025883a 	mov	r18,r2
 40026dc:	008100b4 	movhi	r2,1026
 40026e0:	10ab2704 	addi	r2,r2,-21348
 40026e4:	11000217 	ldw	r4,8(r2)
 40026e8:	40011c40 	call	40011c4 <squared>
 40026ec:	9009883a 	mov	r4,r18
 40026f0:	100b883a 	mov	r5,r2
 40026f4:	400afb00 	call	400afb0 <__addsf3>
 40026f8:	1009883a 	mov	r4,r2
 40026fc:	400b5940 	call	400b594 <__extendsfdf2>
 4002700:	100b883a 	mov	r5,r2
 4002704:	180d883a 	mov	r6,r3
 4002708:	2809883a 	mov	r4,r5
 400270c:	300b883a 	mov	r5,r6
 4002710:	40073140 	call	4007314 <sqrt>
 4002714:	100f883a 	mov	r7,r2
 4002718:	1811883a 	mov	r8,r3
 400271c:	8009883a 	mov	r4,r16
 4002720:	880b883a 	mov	r5,r17
 4002724:	380d883a 	mov	r6,r7
 4002728:	400f883a 	mov	r7,r8
 400272c:	400bdf00 	call	400bdf0 <__divdf3>
 4002730:	100b883a 	mov	r5,r2
 4002734:	180d883a 	mov	r6,r3
 4002738:	2809883a 	mov	r4,r5
 400273c:	300b883a 	mov	r5,r6
 4002740:	40065b80 	call	40065b8 <atan>
 4002744:	1009883a 	mov	r4,r2
 4002748:	180b883a 	mov	r5,r3
 400274c:	2005883a 	mov	r2,r4
 4002750:	2807883a 	mov	r3,r5
 4002754:	1009883a 	mov	r4,r2
 4002758:	180b883a 	mov	r5,r3
 400275c:	400c4bc0 	call	400c4bc <__truncdfsf2>
 4002760:	d0a00a15 	stw	r2,-32728(gp)
    //curPosYaw = atan(RwEst[2]/sqrt(squared(RwEst[0]) + squared(RwEst[1])));

    //printf("\nRoll:%f  Pitch:%f Yaw:%f",theta, phi,yaw);

  }

  firstSample = 0;
 4002764:	d0200515 	stw	zero,-32748(gp)
}
 4002768:	dfc00b17 	ldw	ra,44(sp)
 400276c:	df000a17 	ldw	fp,40(sp)
 4002770:	dc000917 	ldw	r16,36(sp)
 4002774:	dc400817 	ldw	r17,32(sp)
 4002778:	dc800717 	ldw	r18,28(sp)
 400277c:	dcc00617 	ldw	r19,24(sp)
 4002780:	dec00c04 	addi	sp,sp,48
 4002784:	f800283a 	ret

04002788 <IMU_reg_display>:
 *      on the IMU
 *
 ********************************************************/
void IMU_reg_display()
{
 4002788:	defffb04 	addi	sp,sp,-20
 400278c:	dfc00415 	stw	ra,16(sp)
 4002790:	df000315 	stw	fp,12(sp)
 4002794:	df000304 	addi	fp,sp,12
    int i;
    alt_16 read_data;
    alt_u16 reg;
    printf("\r\n\r\n============IMU - ADIS16400========================"
 4002798:	010100b4 	movhi	r4,1026
 400279c:	2120c404 	addi	r4,r4,-31984
 40027a0:	400e10c0 	call	400e10c <printf>
            "\r\nRegisters");

    for(i=0;i<31;i++)
 40027a4:	e03ffe15 	stw	zero,-8(fp)
 40027a8:	e0bffe17 	ldw	r2,-8(fp)
 40027ac:	108007c8 	cmpgei	r2,r2,31
 40027b0:	10001c1e 	bne	r2,zero,4002824 <IMU_reg_display+0x9c>
        {
        reg = (i*2) << 8;
 40027b4:	e0fffe17 	ldw	r3,-8(fp)
 40027b8:	1805883a 	mov	r2,r3
 40027bc:	10c5883a 	add	r2,r2,r3
 40027c0:	1004923a 	slli	r2,r2,8
 40027c4:	e0bfff8d 	sth	r2,-2(fp)
        read_data = read_IMU( reg );
 40027c8:	e13fff8b 	ldhu	r4,-2(fp)
 40027cc:	4002c080 	call	4002c08 <read_IMU>
 40027d0:	e0bfff0d 	sth	r2,-4(fp)
        printf( "\r\n%d.%s\tValue: %x\tDefault: %s", i, reg_str[i], read_data, reg_defaults[i] );
 40027d4:	e0bffe17 	ldw	r2,-8(fp)
 40027d8:	10c00364 	muli	r3,r2,13
 40027dc:	008100b4 	movhi	r2,1026
 40027e0:	10a32084 	addi	r2,r2,-29566
 40027e4:	188d883a 	add	r6,r3,r2
 40027e8:	e1ffff0f 	ldh	r7,-4(fp)
 40027ec:	e0bffe17 	ldw	r2,-8(fp)
 40027f0:	10c001a4 	muli	r3,r2,6
 40027f4:	008100b4 	movhi	r2,1026
 40027f8:	10a2e604 	addi	r2,r2,-29800
 40027fc:	1885883a 	add	r2,r3,r2
 4002800:	d8800015 	stw	r2,0(sp)
 4002804:	010100b4 	movhi	r4,1026
 4002808:	2120d504 	addi	r4,r4,-31916
 400280c:	e17ffe17 	ldw	r5,-8(fp)
 4002810:	400e10c0 	call	400e10c <printf>
 4002814:	e0bffe17 	ldw	r2,-8(fp)
 4002818:	10800044 	addi	r2,r2,1
 400281c:	e0bffe15 	stw	r2,-8(fp)
 4002820:	003fe106 	br	40027a8 <IMU_reg_display+0x20>
        }
}
 4002824:	dfc00417 	ldw	ra,16(sp)
 4002828:	df000317 	ldw	fp,12(sp)
 400282c:	dec00504 	addi	sp,sp,20
 4002830:	f800283a 	ret

04002834 <readUsefulIMU>:

/*********************************************************
 * Title:               readUsefulIMU
 *
 * Description:
 *      Reads gyro, accel, and mag data from the IMU
 *
 ********************************************************/
void readUsefulIMU()
{
 4002834:	defffd04 	addi	sp,sp,-12
 4002838:	dfc00215 	stw	ra,8(sp)
 400283c:	df000115 	stw	fp,4(sp)
 4002840:	dc000015 	stw	r16,0(sp)
 4002844:	df000104 	addi	fp,sp,4
	//alt_timestamp_type timeStart = alt_timestamp_start();
		//If the timestamp is not available print this out
		//if (timeStart < 0) {
		//printf("No timestamp device available\n");
	//}
    currentHeliState.gyroX = read_IMU( XGYRO_OUT );
 4002848:	040100b4 	movhi	r16,1026
 400284c:	842b5504 	addi	r16,r16,-21164
 4002850:	01010004 	movi	r4,1024
 4002854:	4002c080 	call	4002c08 <read_IMU>
 4002858:	8080000d 	sth	r2,0(r16)
    //alt_timestamp_type time1 = alt_timestamp();
    currentHeliState.gyroY = read_IMU( YGYRO_OUT );
 400285c:	040100b4 	movhi	r16,1026
 4002860:	842b5504 	addi	r16,r16,-21164
 4002864:	01018004 	movi	r4,1536
 4002868:	4002c080 	call	4002c08 <read_IMU>
 400286c:	8080008d 	sth	r2,2(r16)
    //alt_timestamp_type time2 = alt_timestamp();
    currentHeliState.gyroZ = read_IMU( ZGYRO_OUT );
 4002870:	040100b4 	movhi	r16,1026
 4002874:	842b5504 	addi	r16,r16,-21164
 4002878:	01020004 	movi	r4,2048
 400287c:	4002c080 	call	4002c08 <read_IMU>
 4002880:	8080010d 	sth	r2,4(r16)
    //alt_timestamp_type time3 = alt_timestamp();
    currentHeliState.accelX = read_IMU( XACCL_OUT );
 4002884:	040100b4 	movhi	r16,1026
 4002888:	842b5504 	addi	r16,r16,-21164
 400288c:	01028004 	movi	r4,2560
 4002890:	4002c080 	call	4002c08 <read_IMU>
 4002894:	8080018d 	sth	r2,6(r16)
    //alt_timestamp_type time4 = alt_timestamp();
    currentHeliState.accelY = read_IMU( YACCL_OUT );
 4002898:	040100b4 	movhi	r16,1026
 400289c:	842b5504 	addi	r16,r16,-21164
 40028a0:	01030004 	movi	r4,3072
 40028a4:	4002c080 	call	4002c08 <read_IMU>
 40028a8:	8080020d 	sth	r2,8(r16)
    //alt_timestamp_type time5 = alt_timestamp();
    currentHeliState.accelZ = read_IMU( ZACCL_OUT );
 40028ac:	040100b4 	movhi	r16,1026
 40028b0:	842b5504 	addi	r16,r16,-21164
 40028b4:	01038004 	movi	r4,3584
 40028b8:	4002c080 	call	4002c08 <read_IMU>
 40028bc:	8080028d 	sth	r2,10(r16)
    //alt_timestamp_type time6 = alt_timestamp();
    //currentHeliState.magX = read_IMU( XMAGN_OUT );
    //alt_timestamp_type time7 = alt_timestamp();
    //currentHeliState.magY = read_IMU( YMAGN_OUT );
    //alt_timestamp_type time8 = alt_timestamp();
    //currentHeliState.magZ = read_IMU( ZMAGN_OUT );
    //alt_timestamp_type time9 = alt_timestamp();

    //float print1 = (((float) (time1 - timeStart) * 20)/ 1000000);
    //float print2 = (((float) (time2 - timeStart) * 20)/ 1000000);
    //float print3 = (((float) (time3 - timeStart) * 20)/ 1000000);
    //float print4 = (((float) (time4 - timeStart) * 20)/ 1000000);
    //float print5 = (((float) (time5 - timeStart) * 20)/ 1000000);
    //float print6 = (((float) (time6 - timeStart) * 20)/ 1000000);
    //float print7 = (((float) (time7 - timeStart) * 20)/ 1000000);
    //float print8 = (((float) (time8 - timeStart) * 20)/ 1000000);
    //float print9 = (((float) (time9 - timeStart) * 20)/ 1000000);

    //printf("1: %f 2: %f 3: %f 4: %f 5: %f 6: %f 7: %f 8: %f\n", print1, print2, print3, print4, print5, print6, print7, print8, print9);
    //printf("9: %f", print9);
    currentHeliState.gyroX = conv14to16( currentHeliState.gyroX );
 40028c0:	040100b4 	movhi	r16,1026
 40028c4:	842b5504 	addi	r16,r16,-21164
 40028c8:	008100b4 	movhi	r2,1026
 40028cc:	10ab5504 	addi	r2,r2,-21164
 40028d0:	1100000b 	ldhu	r4,0(r2)
 40028d4:	4002bc80 	call	4002bc8 <conv14to16>
 40028d8:	8080000d 	sth	r2,0(r16)
    currentHeliState.gyroY = conv14to16( currentHeliState.gyroY );
 40028dc:	040100b4 	movhi	r16,1026
 40028e0:	842b5504 	addi	r16,r16,-21164
 40028e4:	008100b4 	movhi	r2,1026
 40028e8:	10ab5504 	addi	r2,r2,-21164
 40028ec:	1100008b 	ldhu	r4,2(r2)
 40028f0:	4002bc80 	call	4002bc8 <conv14to16>
 40028f4:	8080008d 	sth	r2,2(r16)
    currentHeliState.gyroZ = conv14to16( currentHeliState.gyroZ );
 40028f8:	040100b4 	movhi	r16,1026
 40028fc:	842b5504 	addi	r16,r16,-21164
 4002900:	008100b4 	movhi	r2,1026
 4002904:	10ab5504 	addi	r2,r2,-21164
 4002908:	1100010b 	ldhu	r4,4(r2)
 400290c:	4002bc80 	call	4002bc8 <conv14to16>
 4002910:	8080010d 	sth	r2,4(r16)
    currentHeliState.accelX = conv14to16( currentHeliState.accelX );
 4002914:	040100b4 	movhi	r16,1026
 4002918:	842b5504 	addi	r16,r16,-21164
 400291c:	008100b4 	movhi	r2,1026
 4002920:	10ab5504 	addi	r2,r2,-21164
 4002924:	1100018b 	ldhu	r4,6(r2)
 4002928:	4002bc80 	call	4002bc8 <conv14to16>
 400292c:	8080018d 	sth	r2,6(r16)
    currentHeliState.accelY = conv14to16( currentHeliState.accelY );
 4002930:	040100b4 	movhi	r16,1026
 4002934:	842b5504 	addi	r16,r16,-21164
 4002938:	008100b4 	movhi	r2,1026
 400293c:	10ab5504 	addi	r2,r2,-21164
 4002940:	1100020b 	ldhu	r4,8(r2)
 4002944:	4002bc80 	call	4002bc8 <conv14to16>
 4002948:	8080020d 	sth	r2,8(r16)
    currentHeliState.accelZ = conv14to16( currentHeliState.accelZ );
 400294c:	040100b4 	movhi	r16,1026
 4002950:	842b5504 	addi	r16,r16,-21164
 4002954:	008100b4 	movhi	r2,1026
 4002958:	10ab5504 	addi	r2,r2,-21164
 400295c:	1100028b 	ldhu	r4,10(r2)
 4002960:	4002bc80 	call	4002bc8 <conv14to16>
 4002964:	8080028d 	sth	r2,10(r16)
    //currentHeliState.magX = conv14to16( currentHeliState.magX );
    //currentHeliState.magY = conv14to16( currentHeliState.magY );
    //currentHeliState.magZ = conv14to16( currentHeliState.magZ );
}
 4002968:	dfc00217 	ldw	ra,8(sp)
 400296c:	df000117 	ldw	fp,4(sp)
 4002970:	dc000017 	ldw	r16,0(sp)
 4002974:	dec00304 	addi	sp,sp,12
 4002978:	f800283a 	ret

0400297c <alt_avalon_spi_command_hexcmd>:

/*********************************************************
 * Title:               alt_avalon_spi_command_hexcmd
 *
 * Description:
 *      This code is a slight variation of the auto-gen
 *      code created in the BSP project. The original
 *      function is "alt_avalon_spi_command" in
 *      altera_avalon_spi.c. Sudhanshu made modifications
 *      to change data from 8 bits to 16 bits to match
 *      our IMU; everything else is the same.
 *
 ********************************************************/
static int alt_avalon_spi_command_hexcmd(alt_u32 base, alt_u32 slave,
                           alt_u32 write_length, const alt_u16 * write_data,
                           alt_u32 read_length, alt_u16 * read_data,
                           alt_u32 flags)
{
 400297c:	defff404 	addi	sp,sp,-48
 4002980:	df000b15 	stw	fp,44(sp)
 4002984:	df000b04 	addi	fp,sp,44
 4002988:	e13ff515 	stw	r4,-44(fp)
 400298c:	e17ff615 	stw	r5,-40(fp)
 4002990:	e1bff715 	stw	r6,-36(fp)
 4002994:	e1fff815 	stw	r7,-32(fp)
  const alt_u16 * write_end = write_data + write_length;
 4002998:	e0fff717 	ldw	r3,-36(fp)
 400299c:	1805883a 	mov	r2,r3
 40029a0:	10c7883a 	add	r3,r2,r3
 40029a4:	e0bff817 	ldw	r2,-32(fp)
 40029a8:	1885883a 	add	r2,r3,r2
 40029ac:	e0bff915 	stw	r2,-28(fp)
  alt_u16 * read_end = read_data + read_length;
 40029b0:	e0c00117 	ldw	r3,4(fp)
 40029b4:	1805883a 	mov	r2,r3
 40029b8:	10c7883a 	add	r3,r2,r3
 40029bc:	e0800217 	ldw	r2,8(fp)
 40029c0:	1885883a 	add	r2,r3,r2
 40029c4:	e0bffa15 	stw	r2,-24(fp)

  alt_u32 write_zeros = read_length;
 40029c8:	e0800117 	ldw	r2,4(fp)
 40029cc:	e0bffb15 	stw	r2,-20(fp)
  alt_u32 read_ignore = write_length;
 40029d0:	e0bff717 	ldw	r2,-36(fp)
 40029d4:	e0bffc15 	stw	r2,-16(fp)
  alt_u32 status;

  /* We must not send more than two bytes to the target before it has
   * returned any as otherwise it will overflow. */
  /* Unfortunately the hardware does not seem to work with credits > 1,
   * leave it at 1 for now. */
  alt_32 credits = 1;
 40029d8:	00800044 	movi	r2,1
 40029dc:	e0bffe15 	stw	r2,-8(fp)

  /* Warning: this function is not currently safe if called in a multi-threaded
   * environment, something above must perform locking to make it safe if more
   * than one thread intends to use it.
   */

  IOWR_ALTERA_AVALON_SPI_SLAVE_SEL(base, 1 << slave);
 40029e0:	e0bff517 	ldw	r2,-44(fp)
 40029e4:	10800504 	addi	r2,r2,20
 40029e8:	1009883a 	mov	r4,r2
 40029ec:	00c00044 	movi	r3,1
 40029f0:	e0bff617 	ldw	r2,-40(fp)
 40029f4:	1884983a 	sll	r2,r3,r2
 40029f8:	20800035 	stwio	r2,0(r4)

  /* Set the SSO bit (force chipselect) only if the toggle flag is not set */
  if ((flags & ALT_AVALON_SPI_COMMAND_TOGGLE_SS_N) == 0) {
 40029fc:	e0800317 	ldw	r2,12(fp)
 4002a00:	1080008c 	andi	r2,r2,2
 4002a04:	1004c03a 	cmpne	r2,r2,zero
 4002a08:	1000051e 	bne	r2,zero,4002a20 <alt_avalon_spi_command_hexcmd+0xa4>
    IOWR_ALTERA_AVALON_SPI_CONTROL(base, ALTERA_AVALON_SPI_CONTROL_SSO_MSK);
 4002a0c:	e0bff517 	ldw	r2,-44(fp)
 4002a10:	10800304 	addi	r2,r2,12
 4002a14:	1007883a 	mov	r3,r2
 4002a18:	00810004 	movi	r2,1024
 4002a1c:	18800035 	stwio	r2,0(r3)
  }

  /*
   * Discard any stale data present in the RXDATA register, in case
   * previous communication was interrupted and stale data was left
   * behind.
   */
  IORD_ALTERA_AVALON_SPI_RXDATA(base);
 4002a20:	e0bff517 	ldw	r2,-44(fp)
 4002a24:	10800037 	ldwio	r2,0(r2)

  /* Keep clocking until all the data has been processed. */
  for ( ; ; )
  {

    do
    {
      status = IORD_ALTERA_AVALON_SPI_STATUS(base);
 4002a28:	e0bff517 	ldw	r2,-44(fp)
 4002a2c:	10800204 	addi	r2,r2,8
 4002a30:	10800037 	ldwio	r2,0(r2)
 4002a34:	e0bffd15 	stw	r2,-12(fp)
    }
 4002a38:	e0bffd17 	ldw	r2,-12(fp)
 4002a3c:	1080100c 	andi	r2,r2,64
 4002a40:	1005003a 	cmpeq	r2,r2,zero
 4002a44:	1000031e 	bne	r2,zero,4002a54 <alt_avalon_spi_command_hexcmd+0xd8>
 4002a48:	e0bffe17 	ldw	r2,-8(fp)
 4002a4c:	1004c03a 	cmpne	r2,r2,zero
 4002a50:	1000051e 	bne	r2,zero,4002a68 <alt_avalon_spi_command_hexcmd+0xec>
 4002a54:	e0bffd17 	ldw	r2,-12(fp)
 4002a58:	1080200c 	andi	r2,r2,128
 4002a5c:	1004c03a 	cmpne	r2,r2,zero
 4002a60:	1000011e 	bne	r2,zero,4002a68 <alt_avalon_spi_command_hexcmd+0xec>
 4002a64:	003ff006 	br	4002a28 <alt_avalon_spi_command_hexcmd+0xac>
    while (((status & ALTERA_AVALON_SPI_STATUS_TRDY_MSK) == 0 || credits == 0) &&
            (status & ALTERA_AVALON_SPI_STATUS_RRDY_MSK) == 0);

    if ((status & ALTERA_AVALON_SPI_STATUS_TRDY_MSK) != 0 && credits > 0)
 4002a68:	e0bffd17 	ldw	r2,-12(fp)
 4002a6c:	1080100c 	andi	r2,r2,64
 4002a70:	1005003a 	cmpeq	r2,r2,zero
 4002a74:	1000201e 	bne	r2,zero,4002af8 <alt_avalon_spi_command_hexcmd+0x17c>
 4002a78:	e0bffe17 	ldw	r2,-8(fp)
 4002a7c:	10800050 	cmplti	r2,r2,1
 4002a80:	10001d1e 	bne	r2,zero,4002af8 <alt_avalon_spi_command_hexcmd+0x17c>
    {
      credits--;
 4002a84:	e0bffe17 	ldw	r2,-8(fp)
 4002a88:	10bfffc4 	addi	r2,r2,-1
 4002a8c:	e0bffe15 	stw	r2,-8(fp)

      if (write_data < write_end)
 4002a90:	e0fff817 	ldw	r3,-32(fp)
 4002a94:	e0bff917 	ldw	r2,-28(fp)
 4002a98:	18800b2e 	bgeu	r3,r2,4002ac8 <alt_avalon_spi_command_hexcmd+0x14c>
        IOWR_ALTERA_AVALON_SPI_TXDATA(base, *write_data++);
 4002a9c:	e0bff517 	ldw	r2,-44(fp)
 4002aa0:	10800104 	addi	r2,r2,4
 4002aa4:	1009883a 	mov	r4,r2
 4002aa8:	e17ff804 	addi	r5,fp,-32
 4002aac:	28800017 	ldw	r2,0(r5)
 4002ab0:	1007883a 	mov	r3,r2
 4002ab4:	18c0000b 	ldhu	r3,0(r3)
 4002ab8:	20c00035 	stwio	r3,0(r4)
 4002abc:	10800084 	addi	r2,r2,2
 4002ac0:	28800015 	stw	r2,0(r5)
 4002ac4:	00000c06 	br	4002af8 <alt_avalon_spi_command_hexcmd+0x17c>
      else if (write_zeros > 0)
 4002ac8:	e0bffb17 	ldw	r2,-20(fp)
 4002acc:	1005003a 	cmpeq	r2,r2,zero
 4002ad0:	1000071e 	bne	r2,zero,4002af0 <alt_avalon_spi_command_hexcmd+0x174>
      {
        write_zeros--;
 4002ad4:	e0bffb17 	ldw	r2,-20(fp)
 4002ad8:	10bfffc4 	addi	r2,r2,-1
 4002adc:	e0bffb15 	stw	r2,-20(fp)
        IOWR_ALTERA_AVALON_SPI_TXDATA(base, 0);
 4002ae0:	e0bff517 	ldw	r2,-44(fp)
 4002ae4:	10800104 	addi	r2,r2,4
 4002ae8:	10000035 	stwio	zero,0(r2)
 4002aec:	00000206 	br	4002af8 <alt_avalon_spi_command_hexcmd+0x17c>
      }
      else
        credits = -1024;
 4002af0:	00bf0004 	movi	r2,-1024
 4002af4:	e0bffe15 	stw	r2,-8(fp)
    };

    if ((status & ALTERA_AVALON_SPI_STATUS_RRDY_MSK) != 0)
 4002af8:	e0bffd17 	ldw	r2,-12(fp)
 4002afc:	1080200c 	andi	r2,r2,128
 4002b00:	1005003a 	cmpeq	r2,r2,zero
 4002b04:	103fc81e 	bne	r2,zero,4002a28 <alt_avalon_spi_command_hexcmd+0xac>
    {
      alt_u32 rxdata = IORD_ALTERA_AVALON_SPI_RXDATA(base);
 4002b08:	e0bff517 	ldw	r2,-44(fp)
 4002b0c:	10800037 	ldwio	r2,0(r2)
 4002b10:	e0bfff15 	stw	r2,-4(fp)

      if (read_ignore > 0)
 4002b14:	e0bffc17 	ldw	r2,-16(fp)
 4002b18:	1005003a 	cmpeq	r2,r2,zero
 4002b1c:	1000041e 	bne	r2,zero,4002b30 <alt_avalon_spi_command_hexcmd+0x1b4>
        read_ignore--;
 4002b20:	e0bffc17 	ldw	r2,-16(fp)
 4002b24:	10bfffc4 	addi	r2,r2,-1
 4002b28:	e0bffc15 	stw	r2,-16(fp)
 4002b2c:	00000806 	br	4002b50 <alt_avalon_spi_command_hexcmd+0x1d4>
      else
        *read_data++ = (alt_u16)rxdata;
 4002b30:	e1400204 	addi	r5,fp,8
 4002b34:	28c00017 	ldw	r3,0(r5)
 4002b38:	e0bfff17 	ldw	r2,-4(fp)
 4002b3c:	1009883a 	mov	r4,r2
 4002b40:	1805883a 	mov	r2,r3
 4002b44:	1100000d 	sth	r4,0(r2)
 4002b48:	18c00084 	addi	r3,r3,2
 4002b4c:	28c00015 	stw	r3,0(r5)
      credits++;
 4002b50:	e0bffe17 	ldw	r2,-8(fp)
 4002b54:	10800044 	addi	r2,r2,1
 4002b58:	e0bffe15 	stw	r2,-8(fp)

      if (read_ignore == 0 && read_data == read_end)
 4002b5c:	e0bffc17 	ldw	r2,-16(fp)
 4002b60:	1004c03a 	cmpne	r2,r2,zero
 4002b64:	103fb01e 	bne	r2,zero,4002a28 <alt_avalon_spi_command_hexcmd+0xac>
 4002b68:	e0c00217 	ldw	r3,8(fp)
 4002b6c:	e0bffa17 	ldw	r2,-24(fp)
 4002b70:	18bfad1e 	bne	r3,r2,4002a28 <alt_avalon_spi_command_hexcmd+0xac>
        break;
    }

  }

  /* Wait until the interface has finished transmitting */
  do
  {
    status = IORD_ALTERA_AVALON_SPI_STATUS(base);
 4002b74:	e0bff517 	ldw	r2,-44(fp)
 4002b78:	10800204 	addi	r2,r2,8
 4002b7c:	10800037 	ldwio	r2,0(r2)
 4002b80:	e0bffd15 	stw	r2,-12(fp)
  }
 4002b84:	e0bffd17 	ldw	r2,-12(fp)
 4002b88:	1080080c 	andi	r2,r2,32
 4002b8c:	1004c03a 	cmpne	r2,r2,zero
 4002b90:	1000011e 	bne	r2,zero,4002b98 <alt_avalon_spi_command_hexcmd+0x21c>
 4002b94:	003ff706 	br	4002b74 <alt_avalon_spi_command_hexcmd+0x1f8>
  while ((status & ALTERA_AVALON_SPI_STATUS_TMT_MSK) == 0);

  /* Clear SSO (release chipselect) unless the caller is going to
   * keep using this chip
   */
  if ((flags & ALT_AVALON_SPI_COMMAND_MERGE) == 0)
 4002b98:	e0800317 	ldw	r2,12(fp)
 4002b9c:	1080005c 	xori	r2,r2,1
 4002ba0:	1080004c 	andi	r2,r2,1
 4002ba4:	1005003a 	cmpeq	r2,r2,zero
 4002ba8:	1000031e 	bne	r2,zero,4002bb8 <alt_avalon_spi_command_hexcmd+0x23c>
    IOWR_ALTERA_AVALON_SPI_CONTROL(base, 0);
 4002bac:	e0bff517 	ldw	r2,-44(fp)
 4002bb0:	10800304 	addi	r2,r2,12
 4002bb4:	10000035 	stwio	zero,0(r2)

  return read_length;
 4002bb8:	e0800117 	ldw	r2,4(fp)
}
 4002bbc:	df000b17 	ldw	fp,44(sp)
 4002bc0:	dec00c04 	addi	sp,sp,48
 4002bc4:	f800283a 	ret

04002bc8 <conv14to16>:

/*********************************************************
 * Title:               conv14to16
 *
 * Description:
 *      Converts 14-bit data to 16-bit data. 2's complement.
 *
 ********************************************************/
static alt_16 conv14to16( alt_u16 data14bit )
{
 4002bc8:	defffe04 	addi	sp,sp,-8
 4002bcc:	df000115 	stw	fp,4(sp)
 4002bd0:	df000104 	addi	fp,sp,4
 4002bd4:	e13fff0d 	sth	r4,-4(fp)
alt_16 data16bit = (alt_16)data14bit;
 4002bd8:	e0bfff0b 	ldhu	r2,-4(fp)
 4002bdc:	e0bfff8d 	sth	r2,-2(fp)
data16bit = data16bit << 2; // Shift the top two bits out
 4002be0:	e0bfff8f 	ldh	r2,-2(fp)
 4002be4:	100490ba 	slli	r2,r2,2
 4002be8:	e0bfff8d 	sth	r2,-2(fp)
data16bit = data16bit >> 2; // Shift two bits back in, they will replicate the sign bit
 4002bec:	e0bfff8f 	ldh	r2,-2(fp)
 4002bf0:	1005d0ba 	srai	r2,r2,2
 4002bf4:	e0bfff8d 	sth	r2,-2(fp)
return data16bit;
 4002bf8:	e0bfff8f 	ldh	r2,-2(fp)
}
 4002bfc:	df000117 	ldw	fp,4(sp)
 4002c00:	dec00204 	addi	sp,sp,8
 4002c04:	f800283a 	ret

04002c08 <read_IMU>:

/*********************************************************
 * Title:               read_IMU
 *
 * Description:
 *      Reads the indicated register from the IMU
 *
 ********************************************************/
static alt_16 read_IMU( alt_u16 reg )
{
 4002c08:	defff604 	addi	sp,sp,-40
 4002c0c:	dfc00915 	stw	ra,36(sp)
 4002c10:	df000815 	stw	fp,32(sp)
 4002c14:	df000804 	addi	fp,sp,32
 4002c18:	e13ffb0d 	sth	r4,-20(fp)
alt_u16 read_data;
alt_u32 slave = 0x00000000;
 4002c1c:	e03ffc15 	stw	zero,-16(fp)
alt_u32 write_length = 1;
 4002c20:	00800044 	movi	r2,1
 4002c24:	e0bffd15 	stw	r2,-12(fp)
alt_u32 read_length = 1;
 4002c28:	00800044 	movi	r2,1
 4002c2c:	e0bffe15 	stw	r2,-8(fp)
alt_u32 flags;

alt_avalon_spi_command_hexcmd( SPI_0_BASE, slave, write_length, &reg, read_length, &read_data, flags );
 4002c30:	e0bffe17 	ldw	r2,-8(fp)
 4002c34:	d8800015 	stw	r2,0(sp)
 4002c38:	e0bffb84 	addi	r2,fp,-18
 4002c3c:	d8800115 	stw	r2,4(sp)
 4002c40:	e0bfff17 	ldw	r2,-4(fp)
 4002c44:	d8800215 	stw	r2,8(sp)
 4002c48:	01041804 	movi	r4,4192
 4002c4c:	e17ffc17 	ldw	r5,-16(fp)
 4002c50:	e1bffd17 	ldw	r6,-12(fp)
 4002c54:	e1fffb04 	addi	r7,fp,-20
 4002c58:	400297c0 	call	400297c <alt_avalon_spi_command_hexcmd>

return (alt_16)read_data;
 4002c5c:	e0bffb8f 	ldh	r2,-18(fp)
}
 4002c60:	dfc00917 	ldw	ra,36(sp)
 4002c64:	df000817 	ldw	fp,32(sp)
 4002c68:	dec00a04 	addi	sp,sp,40
 4002c6c:	f800283a 	ret

04002c70 <KALMANFILTER_init>:
//------------------//
// Public Functions //
//------------------//

extern int KALMANFILTER_init() {
 4002c70:	deffaa04 	addi	sp,sp,-344
 4002c74:	dfc05515 	stw	ra,340(sp)
 4002c78:	df005415 	stw	fp,336(sp)
 4002c7c:	df005404 	addi	fp,sp,336
	float temp_H[16] = {1,0,0,0,0,1,0,0,0,0,1,0,0,0,0,1};
 4002c80:	e13fac04 	addi	r4,fp,-336
 4002c84:	01801004 	movi	r6,64
 4002c88:	000b883a 	mov	r5,zero
 4002c8c:	400e00c0 	call	400e00c <memset>
 4002c90:	008fe034 	movhi	r2,16256
 4002c94:	10800004 	addi	r2,r2,0
 4002c98:	e0bfac15 	stw	r2,-336(fp)
 4002c9c:	008fe034 	movhi	r2,16256
 4002ca0:	10800004 	addi	r2,r2,0
 4002ca4:	e0bfb115 	stw	r2,-316(fp)
 4002ca8:	008fe034 	movhi	r2,16256
 4002cac:	10800004 	addi	r2,r2,0
 4002cb0:	e0bfb615 	stw	r2,-296(fp)
 4002cb4:	008fe034 	movhi	r2,16256
 4002cb8:	10800004 	addi	r2,r2,0
 4002cbc:	e0bfbb15 	stw	r2,-276(fp)
	memcpy(H, temp_H, sizeof(H));
 4002cc0:	010100b4 	movhi	r4,1026
 4002cc4:	212ab604 	addi	r4,r4,-21800
 4002cc8:	e17fac04 	addi	r5,fp,-336
 4002ccc:	01801004 	movi	r6,64
 4002cd0:	400df500 	call	400df50 <memcpy>

	float temp_x[4] = {1,0,0,0};
 4002cd4:	e03fbc15 	stw	zero,-272(fp)
 4002cd8:	e03fbd15 	stw	zero,-268(fp)
 4002cdc:	e03fbe15 	stw	zero,-264(fp)
 4002ce0:	e03fbf15 	stw	zero,-260(fp)
 4002ce4:	008fe034 	movhi	r2,16256
 4002ce8:	10800004 	addi	r2,r2,0
 4002cec:	e0bfbc15 	stw	r2,-272(fp)
	memcpy(x, temp_x, sizeof(x));
 4002cf0:	e17fbc04 	addi	r5,fp,-272
 4002cf4:	010100b4 	movhi	r4,1026
 4002cf8:	212ac604 	addi	r4,r4,-21736
 4002cfc:	01800404 	movi	r6,16
 4002d00:	400df500 	call	400df50 <memcpy>

	float temp_P[16] = {1,0,0,0,0,1,0,0,0,0,1,0,0,0,0,1};
 4002d04:	e13fc004 	addi	r4,fp,-256
 4002d08:	01801004 	movi	r6,64
 4002d0c:	000b883a 	mov	r5,zero
 4002d10:	400e00c0 	call	400e00c <memset>
 4002d14:	008fe034 	movhi	r2,16256
 4002d18:	10800004 	addi	r2,r2,0
 4002d1c:	e0bfc015 	stw	r2,-256(fp)
 4002d20:	008fe034 	movhi	r2,16256
 4002d24:	10800004 	addi	r2,r2,0
 4002d28:	e0bfc515 	stw	r2,-236(fp)
 4002d2c:	008fe034 	movhi	r2,16256
 4002d30:	10800004 	addi	r2,r2,0
 4002d34:	e0bfca15 	stw	r2,-216(fp)
 4002d38:	008fe034 	movhi	r2,16256
 4002d3c:	10800004 	addi	r2,r2,0
 4002d40:	e0bfcf15 	stw	r2,-196(fp)
	memcpy(P, temp_P, sizeof(P));
 4002d44:	e17fc004 	addi	r5,fp,-256
 4002d48:	010100b4 	movhi	r4,1026
 4002d4c:	212aca04 	addi	r4,r4,-21720
 4002d50:	01801004 	movi	r6,64
 4002d54:	400df500 	call	400df50 <memcpy>

	float temp_I[16] = {1,0,0,0,0,1,0,0,0,0,1,0,0,0,0,1};
 4002d58:	e13fd004 	addi	r4,fp,-192
 4002d5c:	01801004 	movi	r6,64
 4002d60:	000b883a 	mov	r5,zero
 4002d64:	400e00c0 	call	400e00c <memset>
 4002d68:	008fe034 	movhi	r2,16256
 4002d6c:	10800004 	addi	r2,r2,0
 4002d70:	e0bfd015 	stw	r2,-192(fp)
 4002d74:	008fe034 	movhi	r2,16256
 4002d78:	10800004 	addi	r2,r2,0
 4002d7c:	e0bfd515 	stw	r2,-172(fp)
 4002d80:	008fe034 	movhi	r2,16256
 4002d84:	10800004 	addi	r2,r2,0
 4002d88:	e0bfda15 	stw	r2,-152(fp)
 4002d8c:	008fe034 	movhi	r2,16256
 4002d90:	10800004 	addi	r2,r2,0
 4002d94:	e0bfdf15 	stw	r2,-132(fp)
	memcpy(I, temp_I, sizeof(I));
 4002d98:	e17fd004 	addi	r5,fp,-192
 4002d9c:	010100b4 	movhi	r4,1026
 4002da0:	212ada04 	addi	r4,r4,-21656
 4002da4:	01801004 	movi	r6,64
 4002da8:	400df500 	call	400df50 <memcpy>

	float	temp_Q[16] = {Q_factor,0,0,0,0,Q_factor,0,0,0,0,Q_factor,0,0,0,0,Q_factor};
 4002dac:	e13fe004 	addi	r4,fp,-128
 4002db0:	01801004 	movi	r6,64
 4002db4:	000b883a 	mov	r5,zero
 4002db8:	400e00c0 	call	400e00c <memset>
 4002dbc:	008dff34 	movhi	r2,14332
 4002dc0:	10aa2084 	addi	r2,r2,-22398
 4002dc4:	e0bfe015 	stw	r2,-128(fp)
 4002dc8:	008dff34 	movhi	r2,14332
 4002dcc:	10aa2084 	addi	r2,r2,-22398
 4002dd0:	e0bfe515 	stw	r2,-108(fp)
 4002dd4:	008dff34 	movhi	r2,14332
 4002dd8:	10aa2084 	addi	r2,r2,-22398
 4002ddc:	e0bfea15 	stw	r2,-88(fp)
 4002de0:	008dff34 	movhi	r2,14332
 4002de4:	10aa2084 	addi	r2,r2,-22398
 4002de8:	e0bfef15 	stw	r2,-68(fp)
	memcpy(Q, temp_Q, sizeof(Q));
 4002dec:	e17fe004 	addi	r5,fp,-128
 4002df0:	010100b4 	movhi	r4,1026
 4002df4:	212aea04 	addi	r4,r4,-21592
 4002df8:	01801004 	movi	r6,64
 4002dfc:	400df500 	call	400df50 <memcpy>

	float temp_R[16] = {R_factor,0,0,0,0,R_factor,0,0,0,0,R_factor,0,0,0,0,R_factor};
 4002e00:	e13ff004 	addi	r4,fp,-64
 4002e04:	01801004 	movi	r6,64
 4002e08:	000b883a 	mov	r5,zero
 4002e0c:	400e00c0 	call	400e00c <memset>
 4002e10:	00904834 	movhi	r2,16672
 4002e14:	10800004 	addi	r2,r2,0
 4002e18:	e0bff015 	stw	r2,-64(fp)
 4002e1c:	00904834 	movhi	r2,16672
 4002e20:	10800004 	addi	r2,r2,0
 4002e24:	e0bff515 	stw	r2,-44(fp)
 4002e28:	00904834 	movhi	r2,16672
 4002e2c:	10800004 	addi	r2,r2,0
 4002e30:	e0bffa15 	stw	r2,-24(fp)
 4002e34:	00904834 	movhi	r2,16672
 4002e38:	10800004 	addi	r2,r2,0
 4002e3c:	e0bfff15 	stw	r2,-4(fp)
	memcpy(R, temp_R, sizeof(R));
 4002e40:	e17ff004 	addi	r5,fp,-64
 4002e44:	010100b4 	movhi	r4,1026
 4002e48:	212afa04 	addi	r4,r4,-21528
 4002e4c:	01801004 	movi	r6,64
 4002e50:	400df500 	call	400df50 <memcpy>

	phi   = 0;
 4002e54:	d0203e15 	stw	zero,-32520(gp)
	theta = 0;
 4002e58:	d0203f15 	stw	zero,-32516(gp)
	psi   = 0;
 4002e5c:	d0204015 	stw	zero,-32512(gp)
	return 1;
 4002e60:	00800044 	movi	r2,1
}
 4002e64:	dfc05517 	ldw	ra,340(sp)
 4002e68:	df005417 	ldw	fp,336(sp)
 4002e6c:	dec05604 	addi	sp,sp,344
 4002e70:	f800283a 	ret

04002e74 <KALMANFILTER_update>:

extern int KALMANFILTER_update(float t, float p, float q, float r, float ax, float ay, float az) {
 4002e74:	defff704 	addi	sp,sp,-36
 4002e78:	dfc00815 	stw	ra,32(sp)
 4002e7c:	df000715 	stw	fp,28(sp)
 4002e80:	df000704 	addi	fp,sp,28
 4002e84:	e13ffc15 	stw	r4,-16(fp)
 4002e88:	e17ffd15 	stw	r5,-12(fp)
 4002e8c:	e1bffe15 	stw	r6,-8(fp)
 4002e90:	e1ffff15 	stw	r7,-4(fp)
	#if debug == 1
	printf("inputs ==========\n");
	printf("      t: %.2f\n", t);
	printf("      p: %.2f\n", p);
	printf("      q: %.2f\n", q);
	printf("      r: %.2f\n", r);
	printf("      ax: %.2f\n", ax);
	printf("      ay: %.2f\n", ay);
	printf("      az: %.2f\n", az);
	#endif

	KALMANFILTER_convert(t, p, q, r, ax, ay, az);
 4002e94:	e0800217 	ldw	r2,8(fp)
 4002e98:	d8800015 	stw	r2,0(sp)
 4002e9c:	e0800317 	ldw	r2,12(fp)
 4002ea0:	d8800115 	stw	r2,4(sp)
 4002ea4:	e0800417 	ldw	r2,16(fp)
 4002ea8:	d8800215 	stw	r2,8(sp)
 4002eac:	e13ffc17 	ldw	r4,-16(fp)
 4002eb0:	e17ffd17 	ldw	r5,-12(fp)
 4002eb4:	e1bffe17 	ldw	r6,-8(fp)
 4002eb8:	e1ffff17 	ldw	r7,-4(fp)
 4002ebc:	4002f200 	call	4002f20 <KALMANFILTER_convert>

	#if debug == 1
	printf("printState ==========\n");
	printf("      H:  %e\t%e\t%e\t%e\n          %e\t%e\t%e\t%e\n          %e\t%e\t%e\t%e\n          %e\t%e\t%e\t%e\n",H[0], H[1], H[2], H[3], H[4], H[5], H[6], H[7], H[8], H[9], H[10], H[11], H[12], H[13], H[14], H[15]);
	printf("      x:  %e\t%e\t%e\t%e\n", x[0], x[1], x[2], x[3], x[4]);
	printf("      P:  %e\t%e\t%e\t%e\n          %e\t%e\t%e\t%e\n          %e\t%e\t%e\t%e\n          %e\t%e\t%e\t%e\n",P[0], P[1], P[2], P[3], P[4], P[5], P[6], P[7], P[8], P[9], P[10], P[11], P[12], P[13], P[14], P[15]);
	printf("      I:  %e\t%e\t%e\t%e\n          %e\t%e\t%e\t%e\n          %e\t%e\t%e\t%e\n          %e\t%e\t%e\t%e\n",I[0], I[1], I[2], I[3], I[4], I[5], I[6], I[7], I[8], I[9], I[10], I[11], I[12], I[13], I[14], I[15]);
	printf("      Q:  %e\t%e\t%e\t%e\n          %e\t%e\t%e\t%e\n          %e\t%e\t%e\t%e\n          %e\t%e\t%e\t%e\n",Q[0], Q[1], Q[2], Q[3], Q[4], Q[5], Q[6], Q[7], Q[8], Q[9], Q[10], Q[11], Q[12], Q[13], Q[14], Q[15]);
	printf("      R:  %e\t%e\t%e\t%e\n          %e\t%e\t%e\t%e\n          %e\t%e\t%e\t%e\n          %e\t%e\t%e\t%e\n",R[0], R[1], R[2], R[3], R[4], R[5], R[6], R[7], R[8], R[9], R[10], R[11], R[12], R[13], R[14], R[15]);
	printf("      phi: %e\n", phi);
	printf("      theta: %e\n", theta);
	printf("      psi: %e\n", psi);
	#endif
	return 1;
 4002ec0:	00800044 	movi	r2,1
}
 4002ec4:	dfc00817 	ldw	ra,32(sp)
 4002ec8:	df000717 	ldw	fp,28(sp)
 4002ecc:	dec00904 	addi	sp,sp,36
 4002ed0:	f800283a 	ret

04002ed4 <KALMANFILTER_getData>:

extern int KALMANFILTER_getData(float* roll, float* pitch, float* yaw) {
 4002ed4:	defffc04 	addi	sp,sp,-16
 4002ed8:	df000315 	stw	fp,12(sp)
 4002edc:	df000304 	addi	fp,sp,12
 4002ee0:	e13ffd15 	stw	r4,-12(fp)
 4002ee4:	e17ffe15 	stw	r5,-8(fp)
 4002ee8:	e1bfff15 	stw	r6,-4(fp)
	*roll = phi;
 4002eec:	e0fffd17 	ldw	r3,-12(fp)
 4002ef0:	d0a03e17 	ldw	r2,-32520(gp)
 4002ef4:	18800015 	stw	r2,0(r3)
	*pitch = theta;
 4002ef8:	e0fffe17 	ldw	r3,-8(fp)
 4002efc:	d0a03f17 	ldw	r2,-32516(gp)
 4002f00:	18800015 	stw	r2,0(r3)
	*yaw = psi;
 4002f04:	e0ffff17 	ldw	r3,-4(fp)
 4002f08:	d0a04017 	ldw	r2,-32512(gp)
 4002f0c:	18800015 	stw	r2,0(r3)
	return 1;
 4002f10:	00800044 	movi	r2,1
}
 4002f14:	df000317 	ldw	fp,12(sp)
 4002f18:	dec00404 	addi	sp,sp,16
 4002f1c:	f800283a 	ret

04002f20 <KALMANFILTER_convert>:

//------------------//
// Private Funcions //
//------------------//

int KALMANFILTER_convert(float t, float p, float q, float r, float ax, float ay, float az) {
 4002f20:	deffe304 	addi	sp,sp,-116
 4002f24:	dfc01c15 	stw	ra,112(sp)
 4002f28:	df001b15 	stw	fp,108(sp)
 4002f2c:	df001b04 	addi	fp,sp,108
 4002f30:	e13fe615 	stw	r4,-104(fp)
 4002f34:	e17fe715 	stw	r5,-100(fp)
 4002f38:	e1bfe815 	stw	r6,-96(fp)
 4002f3c:	e1ffe915 	stw	r7,-92(fp)
	float z[4];
	float A[16]; //A[4][4]
	float phi_est;
	float theta_est;

	// Normalize sensor inputs
	t = t * 0.0001;
 4002f40:	e13fe617 	ldw	r4,-104(fp)
 4002f44:	400b5940 	call	400b594 <__extendsfdf2>
 4002f48:	100b883a 	mov	r5,r2
 4002f4c:	180d883a 	mov	r6,r3
 4002f50:	2809883a 	mov	r4,r5
 4002f54:	300b883a 	mov	r5,r6
 4002f58:	01bac734 	movhi	r6,60188
 4002f5c:	3190cb44 	addi	r6,r6,17197
 4002f60:	01cfc6b4 	movhi	r7,16154
 4002f64:	39cdb884 	addi	r7,r7,14050
 4002f68:	400b9f00 	call	400b9f0 <__muldf3>
 4002f6c:	100b883a 	mov	r5,r2
 4002f70:	180d883a 	mov	r6,r3
 4002f74:	2809883a 	mov	r4,r5
 4002f78:	300b883a 	mov	r5,r6
 4002f7c:	400c4bc0 	call	400c4bc <__truncdfsf2>
 4002f80:	e0bfe615 	stw	r2,-104(fp)
	p = p * (pi/(180*20));
 4002f84:	e13fe717 	ldw	r4,-100(fp)
 4002f88:	400b5940 	call	400b594 <__extendsfdf2>
 4002f8c:	100b883a 	mov	r5,r2
 4002f90:	180d883a 	mov	r6,r3
 4002f94:	2809883a 	mov	r4,r5
 4002f98:	300b883a 	mov	r5,r6
 4002f9c:	0180edf4 	movhi	r6,951
 4002fa0:	31bffc84 	addi	r6,r6,-14
 4002fa4:	01cfd374 	movhi	r7,16205
 4002fa8:	39e61c44 	addi	r7,r7,-26511
 4002fac:	400b9f00 	call	400b9f0 <__muldf3>
 4002fb0:	100b883a 	mov	r5,r2
 4002fb4:	180d883a 	mov	r6,r3
 4002fb8:	2809883a 	mov	r4,r5
 4002fbc:	300b883a 	mov	r5,r6
 4002fc0:	400c4bc0 	call	400c4bc <__truncdfsf2>
 4002fc4:	e0bfe715 	stw	r2,-100(fp)
	q = q * (pi/(180*20));
 4002fc8:	e13fe817 	ldw	r4,-96(fp)
 4002fcc:	400b5940 	call	400b594 <__extendsfdf2>
 4002fd0:	100b883a 	mov	r5,r2
 4002fd4:	180d883a 	mov	r6,r3
 4002fd8:	2809883a 	mov	r4,r5
 4002fdc:	300b883a 	mov	r5,r6
 4002fe0:	0180edf4 	movhi	r6,951
 4002fe4:	31bffc84 	addi	r6,r6,-14
 4002fe8:	01cfd374 	movhi	r7,16205
 4002fec:	39e61c44 	addi	r7,r7,-26511
 4002ff0:	400b9f00 	call	400b9f0 <__muldf3>
 4002ff4:	100b883a 	mov	r5,r2
 4002ff8:	180d883a 	mov	r6,r3
 4002ffc:	2809883a 	mov	r4,r5
 4003000:	300b883a 	mov	r5,r6
 4003004:	400c4bc0 	call	400c4bc <__truncdfsf2>
 4003008:	e0bfe815 	stw	r2,-96(fp)
	r = r * (pi/(180*20));
 400300c:	e13fe917 	ldw	r4,-92(fp)
 4003010:	400b5940 	call	400b594 <__extendsfdf2>
 4003014:	100b883a 	mov	r5,r2
 4003018:	180d883a 	mov	r6,r3
 400301c:	2809883a 	mov	r4,r5
 4003020:	300b883a 	mov	r5,r6
 4003024:	0180edf4 	movhi	r6,951
 4003028:	31bffc84 	addi	r6,r6,-14
 400302c:	01cfd374 	movhi	r7,16205
 4003030:	39e61c44 	addi	r7,r7,-26511
 4003034:	400b9f00 	call	400b9f0 <__muldf3>
 4003038:	100b883a 	mov	r5,r2
 400303c:	180d883a 	mov	r6,r3
 4003040:	2809883a 	mov	r4,r5
 4003044:	300b883a 	mov	r5,r6
 4003048:	400c4bc0 	call	400c4bc <__truncdfsf2>
 400304c:	e0bfe915 	stw	r2,-92(fp)
	ax = ax * ((-1*1*3.33)/1000);
 4003050:	e1000217 	ldw	r4,8(fp)
 4003054:	400b5940 	call	400b594 <__extendsfdf2>
 4003058:	100b883a 	mov	r5,r2
 400305c:	180d883a 	mov	r6,r3
 4003060:	2809883a 	mov	r4,r5
 4003064:	300b883a 	mov	r5,r6
 4003068:	0188c434 	movhi	r6,8976
 400306c:	31b3e044 	addi	r6,r6,-12415
 4003070:	01efdaf4 	movhi	r7,49003
 4003074:	39d1e104 	addi	r7,r7,18308
 4003078:	400b9f00 	call	400b9f0 <__muldf3>
 400307c:	100b883a 	mov	r5,r2
 4003080:	180d883a 	mov	r6,r3
 4003084:	2809883a 	mov	r4,r5
 4003088:	300b883a 	mov	r5,r6
 400308c:	400c4bc0 	call	400c4bc <__truncdfsf2>
 4003090:	e0800215 	stw	r2,8(fp)
	ay = ay * ((-1*1*3.33)/1000);
 4003094:	e1000317 	ldw	r4,12(fp)
 4003098:	400b5940 	call	400b594 <__extendsfdf2>
 400309c:	100b883a 	mov	r5,r2
 40030a0:	180d883a 	mov	r6,r3
 40030a4:	2809883a 	mov	r4,r5
 40030a8:	300b883a 	mov	r5,r6
 40030ac:	0188c434 	movhi	r6,8976
 40030b0:	31b3e044 	addi	r6,r6,-12415
 40030b4:	01efdaf4 	movhi	r7,49003
 40030b8:	39d1e104 	addi	r7,r7,18308
 40030bc:	400b9f00 	call	400b9f0 <__muldf3>
 40030c0:	100b883a 	mov	r5,r2
 40030c4:	180d883a 	mov	r6,r3
 40030c8:	2809883a 	mov	r4,r5
 40030cc:	300b883a 	mov	r5,r6
 40030d0:	400c4bc0 	call	400c4bc <__truncdfsf2>
 40030d4:	e0800315 	stw	r2,12(fp)
	az = az * ((1*3.33)/1000); //Used for yaw calculations
 40030d8:	e1000417 	ldw	r4,16(fp)
 40030dc:	400b5940 	call	400b594 <__extendsfdf2>
 40030e0:	100b883a 	mov	r5,r2
 40030e4:	180d883a 	mov	r6,r3
 40030e8:	2809883a 	mov	r4,r5
 40030ec:	300b883a 	mov	r5,r6
 40030f0:	0188c434 	movhi	r6,8976
 40030f4:	31b3e044 	addi	r6,r6,-12415
 40030f8:	01cfdaf4 	movhi	r7,16235
 40030fc:	39d1e104 	addi	r7,r7,18308
 4003100:	400b9f00 	call	400b9f0 <__muldf3>
 4003104:	100b883a 	mov	r5,r2
 4003108:	180d883a 	mov	r6,r3
 400310c:	2809883a 	mov	r4,r5
 4003110:	300b883a 	mov	r5,r6
 4003114:	400c4bc0 	call	400c4bc <__truncdfsf2>
 4003118:	e0800415 	stw	r2,16(fp)

	//A = eye(4) + t*1/2*[0 -p -q -r; p 0 r -q; q -r 0 p; r q -p 0];
	KALMANFILTER_calculateA(A, t, p, q, r);
 400311c:	e13fee04 	addi	r4,fp,-72
 4003120:	e0bfe917 	ldw	r2,-92(fp)
 4003124:	d8800015 	stw	r2,0(sp)
 4003128:	e17fe617 	ldw	r5,-104(fp)
 400312c:	e1bfe717 	ldw	r6,-100(fp)
 4003130:	e1ffe817 	ldw	r7,-96(fp)
 4003134:	40037d80 	call	40037d8 <KALMANFILTER_calculateA>

	//Estimate roll and pitch using accelerometer readings
	KALMANFILTER_eulerAccel(&phi_est, &theta_est, ax, ay, az);
 4003138:	e13ffe04 	addi	r4,fp,-8
 400313c:	e17fff04 	addi	r5,fp,-4
 4003140:	e0800417 	ldw	r2,16(fp)
 4003144:	d8800015 	stw	r2,0(sp)
 4003148:	e1800217 	ldw	r6,8(fp)
 400314c:	e1c00317 	ldw	r7,12(fp)
 4003150:	40035e40 	call	40035e4 <KALMANFILTER_eulerAccel>

	//Get measurement z from Complex Algorithm(tm).
	//We have assumed yaw estimate to be zero for now
	KALMANFILTER_eulerToQuaternion(z, phi_est, theta_est, 0);
 4003154:	e13fea04 	addi	r4,fp,-88
 4003158:	e17ffe17 	ldw	r5,-8(fp)
 400315c:	e1bfff17 	ldw	r6,-4(fp)
 4003160:	000f883a 	mov	r7,zero
 4003164:	40032ac0 	call	40032ac <KALMANFILTER_eulerToQuaternion>

	//Calculate the output values of phi theta and psi
	KALMANFILTER_eulerKalman(&phi, &theta, &psi, A, z);
 4003168:	e1ffee04 	addi	r7,fp,-72
 400316c:	e0bfea04 	addi	r2,fp,-88
 4003170:	d8800015 	stw	r2,0(sp)
 4003174:	d1203e04 	addi	r4,gp,-32520
 4003178:	d1603f04 	addi	r5,gp,-32516
 400317c:	d1a04004 	addi	r6,gp,-32512
 4003180:	40031980 	call	4003198 <KALMANFILTER_eulerKalman>

	return 1;
 4003184:	00800044 	movi	r2,1
}
 4003188:	dfc01c17 	ldw	ra,112(sp)
 400318c:	df001b17 	ldw	fp,108(sp)
 4003190:	dec01d04 	addi	sp,sp,116
 4003194:	f800283a 	ret

04003198 <KALMANFILTER_eulerKalman>:

int KALMANFILTER_eulerKalman(float* phi, float* theta, float* psi, float* A, float* z) {
 4003198:	deffb504 	addi	sp,sp,-300
 400319c:	dfc04a15 	stw	ra,296(sp)
 40031a0:	df004915 	stw	fp,292(sp)
 40031a4:	df004904 	addi	fp,sp,292
 40031a8:	e13fb815 	stw	r4,-288(fp)
 40031ac:	e17fb915 	stw	r5,-284(fp)
 40031b0:	e1bfba15 	stw	r6,-280(fp)
 40031b4:	e1ffbb15 	stw	r7,-276(fp)
	//Argument Sizes
	//phi
	//theta
	//psi
	//A[4][4]
	//z[1][4]

	float K[16];  //K[4][4]
	float Pp[16]; //Pp[4][4]
	float xp[4];  //xp[4][1]
	float A_[16]; //A_[4][4]
	float H_[16]; //H_[4][4]

	MATRIXMATH_transpose(A_, A, 4, 4);
 40031b8:	e13fe004 	addi	r4,fp,-128
 40031bc:	e17fbb17 	ldw	r5,-276(fp)
 40031c0:	01800104 	movi	r6,4
 40031c4:	01c00104 	movi	r7,4
 40031c8:	40063e00 	call	40063e0 <MATRIXMATH_transpose>
	MATRIXMATH_transpose(H_, H, 4, 4);//As long as H is an identity matrix H = H_
 40031cc:	e13ff004 	addi	r4,fp,-64
 40031d0:	014100b4 	movhi	r5,1026
 40031d4:	296ab604 	addi	r5,r5,-21800
 40031d8:	01800104 	movi	r6,4
 40031dc:	01c00104 	movi	r7,4
 40031e0:	40063e00 	call	40063e0 <MATRIXMATH_transpose>

	//xp = A * x
	KALMANFILTER_calculatexp(xp, A, x);
 40031e4:	e13fdc04 	addi	r4,fp,-144
 40031e8:	e17fbb17 	ldw	r5,-276(fp)
 40031ec:	018100b4 	movhi	r6,1026
 40031f0:	31aac604 	addi	r6,r6,-21736
 40031f4:	400378c0 	call	400378c <KALMANFILTER_calculatexp>

	//Pp = A * P * A' + Q
	KALMANFILTER_calculatePp(Pp, A, P, A_, Q);
 40031f8:	e13fcc04 	addi	r4,fp,-208
 40031fc:	e1ffe004 	addi	r7,fp,-128
 4003200:	008100b4 	movhi	r2,1026
 4003204:	10aaea04 	addi	r2,r2,-21592
 4003208:	d8800015 	stw	r2,0(sp)
 400320c:	e17fbb17 	ldw	r5,-276(fp)
 4003210:	018100b4 	movhi	r6,1026
 4003214:	31aaca04 	addi	r6,r6,-21720
 4003218:	40039c40 	call	40039c4 <KALMANFILTER_calculatePp>

	//K = Pp * H' * inv(H*Pp*H' + R)
	KALMANFILTER_calculateK(K, Pp, H_, H, R);
 400321c:	e13fbc04 	addi	r4,fp,-272
 4003220:	e17fcc04 	addi	r5,fp,-208
 4003224:	e1bff004 	addi	r6,fp,-64
 4003228:	008100b4 	movhi	r2,1026
 400322c:	10aafa04 	addi	r2,r2,-21528
 4003230:	d8800015 	stw	r2,0(sp)
 4003234:	01c100b4 	movhi	r7,1026
 4003238:	39eab604 	addi	r7,r7,-21800
 400323c:	4003a4c0 	call	4003a4c <KALMANFILTER_calculateK>

	//x = xp + K*(z - H*xp);
	KALMANFILTER_calculatex(x, xp, K, z, H);
 4003240:	e17fdc04 	addi	r5,fp,-144
 4003244:	e1bfbc04 	addi	r6,fp,-272
 4003248:	008100b4 	movhi	r2,1026
 400324c:	10aab604 	addi	r2,r2,-21800
 4003250:	d8800015 	stw	r2,0(sp)
 4003254:	010100b4 	movhi	r4,1026
 4003258:	212ac604 	addi	r4,r4,-21736
 400325c:	e1c00217 	ldw	r7,8(fp)
 4003260:	4003b300 	call	4003b30 <KALMANFILTER_calculatex>

	//P = Pp - K*H*Pp;
	KALMANFILTER_calculateP(P, Pp, K, H);
 4003264:	e17fcc04 	addi	r5,fp,-208
 4003268:	e1bfbc04 	addi	r6,fp,-272
 400326c:	010100b4 	movhi	r4,1026
 4003270:	212aca04 	addi	r4,r4,-21720
 4003274:	01c100b4 	movhi	r7,1026
 4003278:	39eab604 	addi	r7,r7,-21800
 400327c:	4003ac40 	call	4003ac4 <KALMANFILTER_calculateP>

	KALMANFILTER_calculatePhiThetaPsi(phi, theta, psi, x);
 4003280:	e13fb817 	ldw	r4,-288(fp)
 4003284:	e17fb917 	ldw	r5,-284(fp)
 4003288:	e1bfba17 	ldw	r6,-280(fp)
 400328c:	01c100b4 	movhi	r7,1026
 4003290:	39eac604 	addi	r7,r7,-21736
 4003294:	4003bb80 	call	4003bb8 <KALMANFILTER_calculatePhiThetaPsi>

	return 1;
 4003298:	00800044 	movi	r2,1
}
 400329c:	dfc04a17 	ldw	ra,296(sp)
 40032a0:	df004917 	ldw	fp,292(sp)
 40032a4:	dec04b04 	addi	sp,sp,300
 40032a8:	f800283a 	ret

040032ac <KALMANFILTER_eulerToQuaternion>:

int KALMANFILTER_eulerToQuaternion(float* z, float phi_est, float theta_est, float psi_est) {
 40032ac:	defff204 	addi	sp,sp,-56
 40032b0:	dfc00d15 	stw	ra,52(sp)
 40032b4:	df000c15 	stw	fp,48(sp)
 40032b8:	dc000b15 	stw	r16,44(sp)
 40032bc:	dc400a15 	stw	r17,40(sp)
 40032c0:	df000c04 	addi	fp,sp,48
 40032c4:	e13ff415 	stw	r4,-48(fp)
 40032c8:	e17ff515 	stw	r5,-44(fp)
 40032cc:	e1bff615 	stw	r6,-40(fp)
 40032d0:	e1fff715 	stw	r7,-36(fp)
	//Argument Sizes
	//z[4][1]
	//phi_est
	//theta_est
	//psi_est

	float sin_phi;
	float sin_theta;
	float sin_psi;
	float cos_phi;
	float cos_theta;
	float cos_psi;

	sin_phi   = (float) sin(phi_est/2);
 40032d4:	e13ff517 	ldw	r4,-44(fp)
 40032d8:	01500034 	movhi	r5,16384
 40032dc:	29400004 	addi	r5,r5,0
 40032e0:	400b2300 	call	400b230 <__divsf3>
 40032e4:	1009883a 	mov	r4,r2
 40032e8:	400b5940 	call	400b594 <__extendsfdf2>
 40032ec:	100b883a 	mov	r5,r2
 40032f0:	180d883a 	mov	r6,r3
 40032f4:	2809883a 	mov	r4,r5
 40032f8:	300b883a 	mov	r5,r6
 40032fc:	4006e540 	call	4006e54 <sin>
 4003300:	1009883a 	mov	r4,r2
 4003304:	180b883a 	mov	r5,r3
 4003308:	2005883a 	mov	r2,r4
 400330c:	2807883a 	mov	r3,r5
 4003310:	1009883a 	mov	r4,r2
 4003314:	180b883a 	mov	r5,r3
 4003318:	400c4bc0 	call	400c4bc <__truncdfsf2>
 400331c:	e0bff815 	stw	r2,-32(fp)
	sin_theta = (float) sin(theta_est/2);
 4003320:	e13ff617 	ldw	r4,-40(fp)
 4003324:	01500034 	movhi	r5,16384
 4003328:	29400004 	addi	r5,r5,0
 400332c:	400b2300 	call	400b230 <__divsf3>
 4003330:	1009883a 	mov	r4,r2
 4003334:	400b5940 	call	400b594 <__extendsfdf2>
 4003338:	100b883a 	mov	r5,r2
 400333c:	180d883a 	mov	r6,r3
 4003340:	2809883a 	mov	r4,r5
 4003344:	300b883a 	mov	r5,r6
 4003348:	4006e540 	call	4006e54 <sin>
 400334c:	1009883a 	mov	r4,r2
 4003350:	180b883a 	mov	r5,r3
 4003354:	2005883a 	mov	r2,r4
 4003358:	2807883a 	mov	r3,r5
 400335c:	1009883a 	mov	r4,r2
 4003360:	180b883a 	mov	r5,r3
 4003364:	400c4bc0 	call	400c4bc <__truncdfsf2>
 4003368:	e0bff915 	stw	r2,-28(fp)
	sin_psi   = (float) sin(psi_est/2);
 400336c:	e13ff717 	ldw	r4,-36(fp)
 4003370:	01500034 	movhi	r5,16384
 4003374:	29400004 	addi	r5,r5,0
 4003378:	400b2300 	call	400b230 <__divsf3>
 400337c:	1009883a 	mov	r4,r2
 4003380:	400b5940 	call	400b594 <__extendsfdf2>
 4003384:	100b883a 	mov	r5,r2
 4003388:	180d883a 	mov	r6,r3
 400338c:	2809883a 	mov	r4,r5
 4003390:	300b883a 	mov	r5,r6
 4003394:	4006e540 	call	4006e54 <sin>
 4003398:	1009883a 	mov	r4,r2
 400339c:	180b883a 	mov	r5,r3
 40033a0:	2005883a 	mov	r2,r4
 40033a4:	2807883a 	mov	r3,r5
 40033a8:	1009883a 	mov	r4,r2
 40033ac:	180b883a 	mov	r5,r3
 40033b0:	400c4bc0 	call	400c4bc <__truncdfsf2>
 40033b4:	e0bffa15 	stw	r2,-24(fp)
	cos_phi   = (float) cos(phi_est/2);
 40033b8:	e13ff517 	ldw	r4,-44(fp)
 40033bc:	01500034 	movhi	r5,16384
 40033c0:	29400004 	addi	r5,r5,0
 40033c4:	400b2300 	call	400b230 <__divsf3>
 40033c8:	1009883a 	mov	r4,r2
 40033cc:	400b5940 	call	400b594 <__extendsfdf2>
 40033d0:	100b883a 	mov	r5,r2
 40033d4:	180d883a 	mov	r6,r3
 40033d8:	2809883a 	mov	r4,r5
 40033dc:	300b883a 	mov	r5,r6
 40033e0:	4006ccc0 	call	4006ccc <cos>
 40033e4:	1009883a 	mov	r4,r2
 40033e8:	180b883a 	mov	r5,r3
 40033ec:	2005883a 	mov	r2,r4
 40033f0:	2807883a 	mov	r3,r5
 40033f4:	1009883a 	mov	r4,r2
 40033f8:	180b883a 	mov	r5,r3
 40033fc:	400c4bc0 	call	400c4bc <__truncdfsf2>
 4003400:	e0bffb15 	stw	r2,-20(fp)
	cos_theta = (float) cos(theta_est/2);
 4003404:	e13ff617 	ldw	r4,-40(fp)
 4003408:	01500034 	movhi	r5,16384
 400340c:	29400004 	addi	r5,r5,0
 4003410:	400b2300 	call	400b230 <__divsf3>
 4003414:	1009883a 	mov	r4,r2
 4003418:	400b5940 	call	400b594 <__extendsfdf2>
 400341c:	100b883a 	mov	r5,r2
 4003420:	180d883a 	mov	r6,r3
 4003424:	2809883a 	mov	r4,r5
 4003428:	300b883a 	mov	r5,r6
 400342c:	4006ccc0 	call	4006ccc <cos>
 4003430:	1009883a 	mov	r4,r2
 4003434:	180b883a 	mov	r5,r3
 4003438:	2005883a 	mov	r2,r4
 400343c:	2807883a 	mov	r3,r5
 4003440:	1009883a 	mov	r4,r2
 4003444:	180b883a 	mov	r5,r3
 4003448:	400c4bc0 	call	400c4bc <__truncdfsf2>
 400344c:	e0bffc15 	stw	r2,-16(fp)
	cos_psi   = (float) cos(psi_est/2);
 4003450:	e13ff717 	ldw	r4,-36(fp)
 4003454:	01500034 	movhi	r5,16384
 4003458:	29400004 	addi	r5,r5,0
 400345c:	400b2300 	call	400b230 <__divsf3>
 4003460:	1009883a 	mov	r4,r2
 4003464:	400b5940 	call	400b594 <__extendsfdf2>
 4003468:	100b883a 	mov	r5,r2
 400346c:	180d883a 	mov	r6,r3
 4003470:	2809883a 	mov	r4,r5
 4003474:	300b883a 	mov	r5,r6
 4003478:	4006ccc0 	call	4006ccc <cos>
 400347c:	1009883a 	mov	r4,r2
 4003480:	180b883a 	mov	r5,r3
 4003484:	2005883a 	mov	r2,r4
 4003488:	2807883a 	mov	r3,r5
 400348c:	1009883a 	mov	r4,r2
 4003490:	180b883a 	mov	r5,r3
 4003494:	400c4bc0 	call	400c4bc <__truncdfsf2>
 4003498:	e0bffd15 	stw	r2,-12(fp)

	z[0] = cos_phi*cos_theta*cos_psi + sin_phi*sin_theta*sin_psi;
 400349c:	e47ff417 	ldw	r17,-48(fp)
 40034a0:	e13ffb17 	ldw	r4,-20(fp)
 40034a4:	e17ffc17 	ldw	r5,-16(fp)
 40034a8:	400b06c0 	call	400b06c <__mulsf3>
 40034ac:	1009883a 	mov	r4,r2
 40034b0:	e17ffd17 	ldw	r5,-12(fp)
 40034b4:	400b06c0 	call	400b06c <__mulsf3>
 40034b8:	1021883a 	mov	r16,r2
 40034bc:	e13ff817 	ldw	r4,-32(fp)
 40034c0:	e17ff917 	ldw	r5,-28(fp)
 40034c4:	400b06c0 	call	400b06c <__mulsf3>
 40034c8:	1009883a 	mov	r4,r2
 40034cc:	e17ffa17 	ldw	r5,-24(fp)
 40034d0:	400b06c0 	call	400b06c <__mulsf3>
 40034d4:	8009883a 	mov	r4,r16
 40034d8:	100b883a 	mov	r5,r2
 40034dc:	400afb00 	call	400afb0 <__addsf3>
 40034e0:	88800015 	stw	r2,0(r17)
	z[1] = sin_phi*cos_theta*cos_psi - cos_phi*sin_theta*sin_psi;
 40034e4:	e0bff417 	ldw	r2,-48(fp)
 40034e8:	14400104 	addi	r17,r2,4
 40034ec:	e13ff817 	ldw	r4,-32(fp)
 40034f0:	e17ffc17 	ldw	r5,-16(fp)
 40034f4:	400b06c0 	call	400b06c <__mulsf3>
 40034f8:	1009883a 	mov	r4,r2
 40034fc:	e17ffd17 	ldw	r5,-12(fp)
 4003500:	400b06c0 	call	400b06c <__mulsf3>
 4003504:	1021883a 	mov	r16,r2
 4003508:	e13ffb17 	ldw	r4,-20(fp)
 400350c:	e17ff917 	ldw	r5,-28(fp)
 4003510:	400b06c0 	call	400b06c <__mulsf3>
 4003514:	1009883a 	mov	r4,r2
 4003518:	e17ffa17 	ldw	r5,-24(fp)
 400351c:	400b06c0 	call	400b06c <__mulsf3>
 4003520:	8009883a 	mov	r4,r16
 4003524:	100b883a 	mov	r5,r2
 4003528:	400b0080 	call	400b008 <__subsf3>
 400352c:	88800015 	stw	r2,0(r17)
	z[2] = cos_phi*sin_theta*cos_psi + sin_phi*cos_theta*sin_psi;
 4003530:	e0bff417 	ldw	r2,-48(fp)
 4003534:	14400204 	addi	r17,r2,8
 4003538:	e13ffb17 	ldw	r4,-20(fp)
 400353c:	e17ff917 	ldw	r5,-28(fp)
 4003540:	400b06c0 	call	400b06c <__mulsf3>
 4003544:	1009883a 	mov	r4,r2
 4003548:	e17ffd17 	ldw	r5,-12(fp)
 400354c:	400b06c0 	call	400b06c <__mulsf3>
 4003550:	1021883a 	mov	r16,r2
 4003554:	e13ff817 	ldw	r4,-32(fp)
 4003558:	e17ffc17 	ldw	r5,-16(fp)
 400355c:	400b06c0 	call	400b06c <__mulsf3>
 4003560:	1009883a 	mov	r4,r2
 4003564:	e17ffa17 	ldw	r5,-24(fp)
 4003568:	400b06c0 	call	400b06c <__mulsf3>
 400356c:	8009883a 	mov	r4,r16
 4003570:	100b883a 	mov	r5,r2
 4003574:	400afb00 	call	400afb0 <__addsf3>
 4003578:	88800015 	stw	r2,0(r17)
	z[3] = cos_phi*cos_theta*sin_psi - sin_phi*sin_theta*cos_psi;
 400357c:	e0bff417 	ldw	r2,-48(fp)
 4003580:	14400304 	addi	r17,r2,12
 4003584:	e13ffb17 	ldw	r4,-20(fp)
 4003588:	e17ffc17 	ldw	r5,-16(fp)
 400358c:	400b06c0 	call	400b06c <__mulsf3>
 4003590:	1009883a 	mov	r4,r2
 4003594:	e17ffa17 	ldw	r5,-24(fp)
 4003598:	400b06c0 	call	400b06c <__mulsf3>
 400359c:	1021883a 	mov	r16,r2
 40035a0:	e13ff817 	ldw	r4,-32(fp)
 40035a4:	e17ff917 	ldw	r5,-28(fp)
 40035a8:	400b06c0 	call	400b06c <__mulsf3>
 40035ac:	1009883a 	mov	r4,r2
 40035b0:	e17ffd17 	ldw	r5,-12(fp)
 40035b4:	400b06c0 	call	400b06c <__mulsf3>
 40035b8:	8009883a 	mov	r4,r16
 40035bc:	100b883a 	mov	r5,r2
 40035c0:	400b0080 	call	400b008 <__subsf3>
 40035c4:	88800015 	stw	r2,0(r17)

	#if debug == 1
	printf("z ==========\n");
	printf("  out z: %e\t%e\t%e\t%e\n", z[0], z[1], z[2], z[3]);
	printf("  in  phi_est: %e\n", phi_est);
	printf("  in  theta_est: %e\n", theta_est);
	printf("  in  psi_est: %e\n", psi_est);
	#endif
	return 1;
 40035c8:	00800044 	movi	r2,1
}
 40035cc:	dfc00d17 	ldw	ra,52(sp)
 40035d0:	df000c17 	ldw	fp,48(sp)
 40035d4:	dc000b17 	ldw	r16,44(sp)
 40035d8:	dc400a17 	ldw	r17,40(sp)
 40035dc:	dec00e04 	addi	sp,sp,56
 40035e0:	f800283a 	ret

040035e4 <KALMANFILTER_eulerAccel>:

int KALMANFILTER_eulerAccel(float* phi_est, float* theta_est, float ax, float ay, float az) {
 40035e4:	defff504 	addi	sp,sp,-44
 40035e8:	dfc00a15 	stw	ra,40(sp)
 40035ec:	df000915 	stw	fp,36(sp)
 40035f0:	dc000815 	stw	r16,32(sp)
 40035f4:	dc400715 	stw	r17,28(sp)
 40035f8:	dc800615 	stw	r18,24(sp)
 40035fc:	dcc00515 	stw	r19,20(sp)
 4003600:	df000904 	addi	fp,sp,36
 4003604:	e13ff715 	stw	r4,-36(fp)
 4003608:	e17ff815 	stw	r5,-32(fp)
 400360c:	e1bff915 	stw	r6,-28(fp)
 4003610:	e1fffa15 	stw	r7,-24(fp)
	//Argument Sizes
	//phi_est
	//theta_est
	//ax
	//ay
	float temp;

	*theta_est = atan(ax / sqrt(ay*ay+az*az));
 4003614:	e4fff817 	ldw	r19,-32(fp)
 4003618:	e13ff917 	ldw	r4,-28(fp)
 400361c:	400b5940 	call	400b594 <__extendsfdf2>
 4003620:	1021883a 	mov	r16,r2
 4003624:	1823883a 	mov	r17,r3
 4003628:	e13ffa17 	ldw	r4,-24(fp)
 400362c:	e17ffa17 	ldw	r5,-24(fp)
 4003630:	400b06c0 	call	400b06c <__mulsf3>
 4003634:	1025883a 	mov	r18,r2
 4003638:	e1000217 	ldw	r4,8(fp)
 400363c:	e1400217 	ldw	r5,8(fp)
 4003640:	400b06c0 	call	400b06c <__mulsf3>
 4003644:	9009883a 	mov	r4,r18
 4003648:	100b883a 	mov	r5,r2
 400364c:	400afb00 	call	400afb0 <__addsf3>
 4003650:	1009883a 	mov	r4,r2
 4003654:	400b5940 	call	400b594 <__extendsfdf2>
 4003658:	100b883a 	mov	r5,r2
 400365c:	180d883a 	mov	r6,r3
 4003660:	2809883a 	mov	r4,r5
 4003664:	300b883a 	mov	r5,r6
 4003668:	40073140 	call	4007314 <sqrt>
 400366c:	100f883a 	mov	r7,r2
 4003670:	1811883a 	mov	r8,r3
 4003674:	8009883a 	mov	r4,r16
 4003678:	880b883a 	mov	r5,r17
 400367c:	380d883a 	mov	r6,r7
 4003680:	400f883a 	mov	r7,r8
 4003684:	400bdf00 	call	400bdf0 <__divdf3>
 4003688:	100b883a 	mov	r5,r2
 400368c:	180d883a 	mov	r6,r3
 4003690:	2809883a 	mov	r4,r5
 4003694:	300b883a 	mov	r5,r6
 4003698:	40065b80 	call	40065b8 <atan>
 400369c:	1009883a 	mov	r4,r2
 40036a0:	180b883a 	mov	r5,r3
 40036a4:	2005883a 	mov	r2,r4
 40036a8:	2807883a 	mov	r3,r5
 40036ac:	1009883a 	mov	r4,r2
 40036b0:	180b883a 	mov	r5,r3
 40036b4:	400c4bc0 	call	400c4bc <__truncdfsf2>
 40036b8:	98800015 	stw	r2,0(r19)
	*phi_est = -atan(ay / sqrt(ax*ax+az*az));
 40036bc:	e4fff717 	ldw	r19,-36(fp)
 40036c0:	e13ffa17 	ldw	r4,-24(fp)
 40036c4:	400b5940 	call	400b594 <__extendsfdf2>
 40036c8:	1021883a 	mov	r16,r2
 40036cc:	1823883a 	mov	r17,r3
 40036d0:	e13ff917 	ldw	r4,-28(fp)
 40036d4:	e17ff917 	ldw	r5,-28(fp)
 40036d8:	400b06c0 	call	400b06c <__mulsf3>
 40036dc:	1025883a 	mov	r18,r2
 40036e0:	e1000217 	ldw	r4,8(fp)
 40036e4:	e1400217 	ldw	r5,8(fp)
 40036e8:	400b06c0 	call	400b06c <__mulsf3>
 40036ec:	9009883a 	mov	r4,r18
 40036f0:	100b883a 	mov	r5,r2
 40036f4:	400afb00 	call	400afb0 <__addsf3>
 40036f8:	1009883a 	mov	r4,r2
 40036fc:	400b5940 	call	400b594 <__extendsfdf2>
 4003700:	100b883a 	mov	r5,r2
 4003704:	180d883a 	mov	r6,r3
 4003708:	2809883a 	mov	r4,r5
 400370c:	300b883a 	mov	r5,r6
 4003710:	40073140 	call	4007314 <sqrt>
 4003714:	100f883a 	mov	r7,r2
 4003718:	1811883a 	mov	r8,r3
 400371c:	8009883a 	mov	r4,r16
 4003720:	880b883a 	mov	r5,r17
 4003724:	380d883a 	mov	r6,r7
 4003728:	400f883a 	mov	r7,r8
 400372c:	400bdf00 	call	400bdf0 <__divdf3>
 4003730:	100b883a 	mov	r5,r2
 4003734:	180d883a 	mov	r6,r3
 4003738:	2809883a 	mov	r4,r5
 400373c:	300b883a 	mov	r5,r6
 4003740:	40065b80 	call	40065b8 <atan>
 4003744:	1009883a 	mov	r4,r2
 4003748:	180b883a 	mov	r5,r3
 400374c:	2005883a 	mov	r2,r4
 4003750:	2807883a 	mov	r3,r5
 4003754:	1009883a 	mov	r4,r2
 4003758:	180b883a 	mov	r5,r3
 400375c:	400c4bc0 	call	400c4bc <__truncdfsf2>
 4003760:	10a0003c 	xorhi	r2,r2,32768
 4003764:	98800015 	stw	r2,0(r19)

	//temp = (float) asin(ax/g);
	//*theta_est = temp;
	//*phi_est   = (float) asin( -ay/(g*cos(temp)));

	#if debug == 1
	printf("eulerAccel ==========\n");
	printf("  out phi_est: %e\n", *phi_est);
	printf("  out theta_est: %e\n", *theta_est);
	printf("  in  ax: %e\n", ax);
	printf("  in  ay: %e\n", ay);
	#endif
	return 1;
 4003768:	00800044 	movi	r2,1
}
 400376c:	dfc00a17 	ldw	ra,40(sp)
 4003770:	df000917 	ldw	fp,36(sp)
 4003774:	dc000817 	ldw	r16,32(sp)
 4003778:	dc400717 	ldw	r17,28(sp)
 400377c:	dc800617 	ldw	r18,24(sp)
 4003780:	dcc00517 	ldw	r19,20(sp)
 4003784:	dec00b04 	addi	sp,sp,44
 4003788:	f800283a 	ret

0400378c <KALMANFILTER_calculatexp>:

int KALMANFILTER_calculatexp(float* xp, float* A, float* x) {
 400378c:	defffa04 	addi	sp,sp,-24
 4003790:	dfc00515 	stw	ra,20(sp)
 4003794:	df000415 	stw	fp,16(sp)
 4003798:	df000404 	addi	fp,sp,16
 400379c:	e13ffd15 	stw	r4,-12(fp)
 40037a0:	e17ffe15 	stw	r5,-8(fp)
 40037a4:	e1bfff15 	stw	r6,-4(fp)
	//Argument Sizes
	//xp[4][1]
	//A[4][4]
	//x[4][1]

	MATRIXMATH_multiply(xp, A, x, 4, 1);
 40037a8:	00800044 	movi	r2,1
 40037ac:	d8800015 	stw	r2,0(sp)
 40037b0:	e13ffd17 	ldw	r4,-12(fp)
 40037b4:	e17ffe17 	ldw	r5,-8(fp)
 40037b8:	e1bfff17 	ldw	r6,-4(fp)
 40037bc:	01c00104 	movi	r7,4
 40037c0:	4003ea40 	call	4003ea4 <MATRIXMATH_multiply>

	#if debug == 1
	printf("xp ==========\n");
	printf("  out xp: %e\t%e\t%e\t%e\n",xp[0], xp[1], xp[2], xp[3]);
	printf("  in  A:  %e\t%e\t%e\t%e\n          %e\t%e\t%e\t%e\n          %e\t%e\t%e\t%e\n          %e\t%e\t%e\t%e\n",A[0], A[1], A[2], A[3], A[4], A[5], A[6], A[7], A[8], A[9], A[10], A[11], A[12], A[13], A[14], A[15]);
	printf("  in  x:  %e\t%e\t%e\t%e\n",x[0], x[1], x[2], x[3]);
	#endif
	return 1;
 40037c4:	00800044 	movi	r2,1
}
 40037c8:	dfc00517 	ldw	ra,20(sp)
 40037cc:	df000417 	ldw	fp,16(sp)
 40037d0:	dec00604 	addi	sp,sp,24
 40037d4:	f800283a 	ret

040037d8 <KALMANFILTER_calculateA>:

int KALMANFILTER_calculateA(float* A, float t, float p, float q, float r) {
 40037d8:	defff804 	addi	sp,sp,-32
 40037dc:	dfc00715 	stw	ra,28(sp)
 40037e0:	df000615 	stw	fp,24(sp)
 40037e4:	dc000515 	stw	r16,20(sp)
 40037e8:	df000604 	addi	fp,sp,24
 40037ec:	e13ffa15 	stw	r4,-24(fp)
 40037f0:	e17ffb15 	stw	r5,-20(fp)
 40037f4:	e1bffc15 	stw	r6,-16(fp)
 40037f8:	e1fffd15 	stw	r7,-12(fp)
	//Matlab equivilent code
	//A = eye(4) + t*1/2*[0 -p -q -r;
	//                    p  0  r -q;
	//                    q -r  0  p;
	//                    r  q -p  0]

	//Argument Sizes
	//A[4][4]
	//t
	//p
	//q
	//r
	float n;

	n = t*0.5;
 40037fc:	e13ffb17 	ldw	r4,-20(fp)
 4003800:	014fc034 	movhi	r5,16128
 4003804:	29400004 	addi	r5,r5,0
 4003808:	400b06c0 	call	400b06c <__mulsf3>
 400380c:	e0bffe15 	stw	r2,-8(fp)
	A[0]  = 1;
 4003810:	e0fffa17 	ldw	r3,-24(fp)
 4003814:	008fe034 	movhi	r2,16256
 4003818:	10800004 	addi	r2,r2,0
 400381c:	18800015 	stw	r2,0(r3)
	A[1]  = -p*n;
 4003820:	e0bffa17 	ldw	r2,-24(fp)
 4003824:	14000104 	addi	r16,r2,4
 4003828:	e0bffc17 	ldw	r2,-16(fp)
 400382c:	10a0003c 	xorhi	r2,r2,32768
 4003830:	1009883a 	mov	r4,r2
 4003834:	e17ffe17 	ldw	r5,-8(fp)
 4003838:	400b06c0 	call	400b06c <__mulsf3>
 400383c:	80800015 	stw	r2,0(r16)
	A[2]  = -q*n;
 4003840:	e0bffa17 	ldw	r2,-24(fp)
 4003844:	14000204 	addi	r16,r2,8
 4003848:	e0bffd17 	ldw	r2,-12(fp)
 400384c:	10a0003c 	xorhi	r2,r2,32768
 4003850:	1009883a 	mov	r4,r2
 4003854:	e17ffe17 	ldw	r5,-8(fp)
 4003858:	400b06c0 	call	400b06c <__mulsf3>
 400385c:	80800015 	stw	r2,0(r16)
	A[3]  = -r*n;
 4003860:	e0bffa17 	ldw	r2,-24(fp)
 4003864:	14000304 	addi	r16,r2,12
 4003868:	e0800217 	ldw	r2,8(fp)
 400386c:	10a0003c 	xorhi	r2,r2,32768
 4003870:	1009883a 	mov	r4,r2
 4003874:	e17ffe17 	ldw	r5,-8(fp)
 4003878:	400b06c0 	call	400b06c <__mulsf3>
 400387c:	80800015 	stw	r2,0(r16)
	A[4]  = p*n;
 4003880:	e0bffa17 	ldw	r2,-24(fp)
 4003884:	14000404 	addi	r16,r2,16
 4003888:	e13ffc17 	ldw	r4,-16(fp)
 400388c:	e17ffe17 	ldw	r5,-8(fp)
 4003890:	400b06c0 	call	400b06c <__mulsf3>
 4003894:	80800015 	stw	r2,0(r16)
	A[5]  = 1;
 4003898:	e0bffa17 	ldw	r2,-24(fp)
 400389c:	10c00504 	addi	r3,r2,20
 40038a0:	008fe034 	movhi	r2,16256
 40038a4:	10800004 	addi	r2,r2,0
 40038a8:	18800015 	stw	r2,0(r3)
	A[6]  = r*n;
 40038ac:	e0bffa17 	ldw	r2,-24(fp)
 40038b0:	14000604 	addi	r16,r2,24
 40038b4:	e1000217 	ldw	r4,8(fp)
 40038b8:	e17ffe17 	ldw	r5,-8(fp)
 40038bc:	400b06c0 	call	400b06c <__mulsf3>
 40038c0:	80800015 	stw	r2,0(r16)
	A[7]  = -q*n;
 40038c4:	e0bffa17 	ldw	r2,-24(fp)
 40038c8:	14000704 	addi	r16,r2,28
 40038cc:	e0bffd17 	ldw	r2,-12(fp)
 40038d0:	10a0003c 	xorhi	r2,r2,32768
 40038d4:	1009883a 	mov	r4,r2
 40038d8:	e17ffe17 	ldw	r5,-8(fp)
 40038dc:	400b06c0 	call	400b06c <__mulsf3>
 40038e0:	80800015 	stw	r2,0(r16)
	A[8]  = q*n;
 40038e4:	e0bffa17 	ldw	r2,-24(fp)
 40038e8:	14000804 	addi	r16,r2,32
 40038ec:	e13ffd17 	ldw	r4,-12(fp)
 40038f0:	e17ffe17 	ldw	r5,-8(fp)
 40038f4:	400b06c0 	call	400b06c <__mulsf3>
 40038f8:	80800015 	stw	r2,0(r16)
	A[9]  = -r*n;
 40038fc:	e0bffa17 	ldw	r2,-24(fp)
 4003900:	14000904 	addi	r16,r2,36
 4003904:	e0800217 	ldw	r2,8(fp)
 4003908:	10a0003c 	xorhi	r2,r2,32768
 400390c:	1009883a 	mov	r4,r2
 4003910:	e17ffe17 	ldw	r5,-8(fp)
 4003914:	400b06c0 	call	400b06c <__mulsf3>
 4003918:	80800015 	stw	r2,0(r16)
	A[10] = 1;
 400391c:	e0bffa17 	ldw	r2,-24(fp)
 4003920:	10c00a04 	addi	r3,r2,40
 4003924:	008fe034 	movhi	r2,16256
 4003928:	10800004 	addi	r2,r2,0
 400392c:	18800015 	stw	r2,0(r3)
	A[11] = p*n;
 4003930:	e0bffa17 	ldw	r2,-24(fp)
 4003934:	14000b04 	addi	r16,r2,44
 4003938:	e13ffc17 	ldw	r4,-16(fp)
 400393c:	e17ffe17 	ldw	r5,-8(fp)
 4003940:	400b06c0 	call	400b06c <__mulsf3>
 4003944:	80800015 	stw	r2,0(r16)
	A[12] = r*n;
 4003948:	e0bffa17 	ldw	r2,-24(fp)
 400394c:	14000c04 	addi	r16,r2,48
 4003950:	e1000217 	ldw	r4,8(fp)
 4003954:	e17ffe17 	ldw	r5,-8(fp)
 4003958:	400b06c0 	call	400b06c <__mulsf3>
 400395c:	80800015 	stw	r2,0(r16)
	A[13] = q*n;
 4003960:	e0bffa17 	ldw	r2,-24(fp)
 4003964:	14000d04 	addi	r16,r2,52
 4003968:	e13ffd17 	ldw	r4,-12(fp)
 400396c:	e17ffe17 	ldw	r5,-8(fp)
 4003970:	400b06c0 	call	400b06c <__mulsf3>
 4003974:	80800015 	stw	r2,0(r16)
	A[14] = -p*n;
 4003978:	e0bffa17 	ldw	r2,-24(fp)
 400397c:	14000e04 	addi	r16,r2,56
 4003980:	e0bffc17 	ldw	r2,-16(fp)
 4003984:	10a0003c 	xorhi	r2,r2,32768
 4003988:	1009883a 	mov	r4,r2
 400398c:	e17ffe17 	ldw	r5,-8(fp)
 4003990:	400b06c0 	call	400b06c <__mulsf3>
 4003994:	80800015 	stw	r2,0(r16)
	A[15] = 1;
 4003998:	e0bffa17 	ldw	r2,-24(fp)
 400399c:	10c00f04 	addi	r3,r2,60
 40039a0:	008fe034 	movhi	r2,16256
 40039a4:	10800004 	addi	r2,r2,0
 40039a8:	18800015 	stw	r2,0(r3)

	#if debug == 1
	printf("A ==========\n");
	printf("  out A:  %e\t%e\t%e\t%e\n          %e\t%e\t%e\t%e\n          %e\t%e\t%e\t%e\n          %e\t%e\t%e\t%e\n",A[0], A[1], A[2], A[3], A[4], A[5], A[6], A[7], A[8], A[9], A[10], A[11], A[12], A[13], A[14], A[15]);
	printf("  in  t: %e\n", t);
	printf("  in  p: %e\n", p);
	printf("  in  q: %e\n", q);
	printf("  in  r: %e\n", r);
	#endif
	return 1;
 40039ac:	00800044 	movi	r2,1
}
 40039b0:	dfc00717 	ldw	ra,28(sp)
 40039b4:	df000617 	ldw	fp,24(sp)
 40039b8:	dc000517 	ldw	r16,20(sp)
 40039bc:	dec00804 	addi	sp,sp,32
 40039c0:	f800283a 	ret

040039c4 <KALMANFILTER_calculatePp>:

int KALMANFILTER_calculatePp(float* Pp, float* A, float* P, float* A_, float* Q) {
 40039c4:	deffd904 	addi	sp,sp,-156
 40039c8:	dfc02615 	stw	ra,152(sp)
 40039cc:	df002515 	stw	fp,148(sp)
 40039d0:	df002504 	addi	fp,sp,148
 40039d4:	e13fdc15 	stw	r4,-144(fp)
 40039d8:	e17fdd15 	stw	r5,-140(fp)
 40039dc:	e1bfde15 	stw	r6,-136(fp)
 40039e0:	e1ffdf15 	stw	r7,-132(fp)
	//Matlab equivilent code
	//Pp = (A * P) * A' + Q

	//Argument Sizes
	//pP[4][4]
	//A[4][4]
	//P[4][4]
	//A_[4][4]
	//Q[4][4]
	float temp1[16];
	float temp2[16];

	MATRIXMATH_multiply(temp1, A, P, 4, 4);
 40039e4:	e13fe004 	addi	r4,fp,-128
 40039e8:	00800104 	movi	r2,4
 40039ec:	d8800015 	stw	r2,0(sp)
 40039f0:	e17fdd17 	ldw	r5,-140(fp)
 40039f4:	e1bfde17 	ldw	r6,-136(fp)
 40039f8:	01c00104 	movi	r7,4
 40039fc:	4003ea40 	call	4003ea4 <MATRIXMATH_multiply>
	MATRIXMATH_multiply(temp2, temp1, A_, 4, 4);
 4003a00:	e13ff004 	addi	r4,fp,-64
 4003a04:	e17fe004 	addi	r5,fp,-128
 4003a08:	00800104 	movi	r2,4
 4003a0c:	d8800015 	stw	r2,0(sp)
 4003a10:	e1bfdf17 	ldw	r6,-132(fp)
 4003a14:	01c00104 	movi	r7,4
 4003a18:	4003ea40 	call	4003ea4 <MATRIXMATH_multiply>
	MATRIXMATH_add(Pp, temp2, Q, 4, 4);
 4003a1c:	e17ff004 	addi	r5,fp,-64
 4003a20:	00800104 	movi	r2,4
 4003a24:	d8800015 	stw	r2,0(sp)
 4003a28:	e13fdc17 	ldw	r4,-144(fp)
 4003a2c:	e1800217 	ldw	r6,8(fp)
 4003a30:	01c00104 	movi	r7,4
 4003a34:	40040080 	call	4004008 <MATRIXMATH_add>

	#if debug == 1
	printf("Pp ==========\n");
	printf("  out Pp:  %e\t%e\t%e\t%e\n          %e\t%e\t%e\t%e\n          %e\t%e\t%e\t%e\n          %e\t%e\t%e\t%e\n",Pp[0], Pp[1], Pp[2], Pp[3], Pp[4], Pp[5], Pp[6], Pp[7], Pp[8], Pp[9], Pp[10], Pp[11], Pp[12], Pp[13], Pp[14], Pp[15]);
	printf("  in  A:  %e\t%e\t%e\t%e\n          %e\t%e\t%e\t%e\n          %e\t%e\t%e\t%e\n          %e\t%e\t%e\t%e\n",A[0], A[1], A[2], A[3], A[4], A[5], A[6], A[7], A[8], A[9], A[10], A[11], A[12], A[13], A[14], A[15]);
	printf("  in  P:  %e\t%e\t%e\t%e\n          %e\t%e\t%e\t%e\n          %e\t%e\t%e\t%e\n          %e\t%e\t%e\t%e\n",P[0], P[1], P[2], P[3], P[4], P[5], P[6], P[7], P[8], P[9], P[10], P[11], P[12], P[13], P[14], P[15]);
	printf("  in  A_:  %e\t%e\t%e\t%e\n          %e\t%e\t%e\t%e\n          %e\t%e\t%e\t%e\n          %e\t%e\t%e\t%e\n",A_[0], A_[1], A_[2], A_[3], A_[4], A_[5], A_[6], A_[7], A_[8], A_[9], A_[10], A_[11], A_[12], A_[13], A_[14], A_[15]);
	printf("  in  Q:  %e\t%e\t%e\t%e\n          %e\t%e\t%e\t%e\n          %e\t%e\t%e\t%e\n          %e\t%e\t%e\t%e\n",Q[0], Q[1], Q[2], Q[3], Q[4], Q[5], Q[6], Q[7], Q[8], Q[9], Q[10], Q[11], Q[12], Q[13], Q[14], Q[15]);
	#endif
	return 1;
 4003a38:	00800044 	movi	r2,1
}
 4003a3c:	dfc02617 	ldw	ra,152(sp)
 4003a40:	df002517 	ldw	fp,148(sp)
 4003a44:	dec02704 	addi	sp,sp,156
 4003a48:	f800283a 	ret

04003a4c <KALMANFILTER_calculateK>:

int KALMANFILTER_calculateK(float* K, float* Pp, float* H_, float* H, float* R) {
 4003a4c:	deffd904 	addi	sp,sp,-156
 4003a50:	dfc02615 	stw	ra,152(sp)
 4003a54:	df002515 	stw	fp,148(sp)
 4003a58:	df002504 	addi	fp,sp,148
 4003a5c:	e13fdc15 	stw	r4,-144(fp)
 4003a60:	e17fdd15 	stw	r5,-140(fp)
 4003a64:	e1bfde15 	stw	r6,-136(fp)
 4003a68:	e1ffdf15 	stw	r7,-132(fp)
	//Matlab equivilent code
	//K = Pp*H_*inv(H*Pp*H_ + R)
	//K = Pp*inv(Pp+R)

	//Argument Sizes
	//K[4][4]
	//Pp[4][4]
	//H_[4][4]
	//H[4][4]
	//R[4][4]
	float temp1[16]; //temp1[4][4]
	float temp2[16]; //temp2[4][4]
	//float temp3[16]; //temp2[4][4]
	//float temp4[16]; //temp2[4][4]
	//float temp5[16]; //temp2[4][4]

	MATRIXMATH_add(temp1, Pp, R, 4, 4);
 4003a6c:	e13fe004 	addi	r4,fp,-128
 4003a70:	00800104 	movi	r2,4
 4003a74:	d8800015 	stw	r2,0(sp)
 4003a78:	e17fdd17 	ldw	r5,-140(fp)
 4003a7c:	e1800217 	ldw	r6,8(fp)
 4003a80:	01c00104 	movi	r7,4
 4003a84:	40040080 	call	4004008 <MATRIXMATH_add>
	MATRIXMATH_inverse4x4(temp2, temp1);
 4003a88:	e13ff004 	addi	r4,fp,-64
 4003a8c:	e17fe004 	addi	r5,fp,-128
 4003a90:	40041600 	call	4004160 <MATRIXMATH_inverse4x4>
	MATRIXMATH_multiply(K, Pp, temp2, 4, 4);
 4003a94:	e1bff004 	addi	r6,fp,-64
 4003a98:	00800104 	movi	r2,4
 4003a9c:	d8800015 	stw	r2,0(sp)
 4003aa0:	e13fdc17 	ldw	r4,-144(fp)
 4003aa4:	e17fdd17 	ldw	r5,-140(fp)
 4003aa8:	01c00104 	movi	r7,4
 4003aac:	4003ea40 	call	4003ea4 <MATRIXMATH_multiply>

	//MATRIXMATH_multiply(temp1, H, Pp, 4, 4);//Bad if H is eye(4)
	//MATRIXMATH_multiply(temp2, temp1, H_, 4, 4);//Bad if H_ is eye(4)
	//MATRIXMATH_add(temp3, temp2, R, 4 ,4);
	//MATRIXMATH_inverse4x4(temp4, temp3);
	//MATRIXMATH_multiply(temp5, Pp, H_, 4, 4);//Bad if H_ is eye(4)
	//MATRIXMATH_multiply(K, temp5, temp4, 4, 4);

	#if debug == 1
	printf("K ==========\n");
	printf("  out K:  %e\t%e\t%e\t%e\n          %e\t%e\t%e\t%e\n          %e\t%e\t%e\t%e\n          %e\t%e\t%e\t%e\n",K[0], K[1], K[2], K[3], K[4], K[5], K[6], K[7], K[8], K[9], K[10], K[11], K[12], K[13], K[14], K[15]);
	printf("  in  H_:  %e\t%e\t%e\t%e\n          %e\t%e\t%e\t%e\n          %e\t%e\t%e\t%e\n          %e\t%e\t%e\t%e\n",H_[0], H_[1], H_[2], H_[3], H_[4], H_[5], H_[6], H_[7], H_[8], H_[9], H_[10], H_[11], H_[12], H_[13], H_[14], H_[15]);
	printf("  in  Pp:  %e\t%e\t%e\t%e\n          %e\t%e\t%e\t%e\n          %e\t%e\t%e\t%e\n          %e\t%e\t%e\t%e\n",Pp[0], Pp[1], Pp[2], Pp[3], Pp[4], Pp[5], Pp[6], Pp[7], Pp[8], Pp[9], Pp[10], Pp[11], Pp[12], Pp[13], Pp[14], Pp[15]);
	#endif
	return 1;
 4003ab0:	00800044 	movi	r2,1
}
 4003ab4:	dfc02617 	ldw	ra,152(sp)
 4003ab8:	df002517 	ldw	fp,148(sp)
 4003abc:	dec02704 	addi	sp,sp,156
 4003ac0:	f800283a 	ret

04003ac4 <KALMANFILTER_calculateP>:

int KALMANFILTER_calculateP(float* P, float* Pp, float* K, float* H) {
 4003ac4:	deffe904 	addi	sp,sp,-92
 4003ac8:	dfc01615 	stw	ra,88(sp)
 4003acc:	df001515 	stw	fp,84(sp)
 4003ad0:	df001504 	addi	fp,sp,84
 4003ad4:	e13fec15 	stw	r4,-80(fp)
 4003ad8:	e17fed15 	stw	r5,-76(fp)
 4003adc:	e1bfee15 	stw	r6,-72(fp)
 4003ae0:	e1ffef15 	stw	r7,-68(fp)
	//Matlab equivilent code
	//P = Pp - K*H*Pp;
	//H is the identity matrix
	//We simplify the equation to P = Pp - K*Pp

	//Argument Sizes
	//P[4][4]
	//Pp[4][4]
	//K[4][4]
	//H[4][4]
	float temp1[16]; //temp1[4][4]

	MATRIXMATH_multiply(temp1, K, Pp, 4, 4);
 4003ae4:	e13ff004 	addi	r4,fp,-64
 4003ae8:	00800104 	movi	r2,4
 4003aec:	d8800015 	stw	r2,0(sp)
 4003af0:	e17fee17 	ldw	r5,-72(fp)
 4003af4:	e1bfed17 	ldw	r6,-76(fp)
 4003af8:	01c00104 	movi	r7,4
 4003afc:	4003ea40 	call	4003ea4 <MATRIXMATH_multiply>
	MATRIXMATH_subtract(P, Pp, temp1, 4, 4);
 4003b00:	e1bff004 	addi	r6,fp,-64
 4003b04:	00800104 	movi	r2,4
 4003b08:	d8800015 	stw	r2,0(sp)
 4003b0c:	e13fec17 	ldw	r4,-80(fp)
 4003b10:	e17fed17 	ldw	r5,-76(fp)
 4003b14:	01c00104 	movi	r7,4
 4003b18:	40040b40 	call	40040b4 <MATRIXMATH_subtract>

	#if debug == 1
	printf("P ==========\n");
	printf("  out P:  %e\t%e\t%e\t%e\n          %e\t%e\t%e\t%e\n          %e\t%e\t%e\t%e\n          %e\t%e\t%e\t%e\n",P[0], P[1], P[2], P[3], P[4], P[5], P[6], P[7], P[8], P[9], P[10], P[11], P[12], P[13], P[14], P[15]);
	printf("  in  Pp: %e\t%e\t%e\t%e\n          %e\t%e\t%e\t%e\n          %e\t%e\t%e\t%e\n          %e\t%e\t%e\t%e\n",Pp[0], Pp[1], Pp[2], Pp[3], Pp[4], Pp[5], Pp[6], Pp[7], Pp[8], Pp[9], Pp[10], Pp[11], Pp[12], Pp[13], Pp[14], Pp[15]);
	printf("  in  K:  %e\t%e\t%e\t%e\n          %e\t%e\t%e\t%e\n          %e\t%e\t%e\t%e\n          %e\t%e\t%e\t%e\n",K[0], K[1], K[2], K[3], K[4], K[5], K[6], K[7], K[8], K[9], K[10], K[11], K[12], K[13], K[14], K[15]);
	#endif
	return 1;
 4003b1c:	00800044 	movi	r2,1
}
 4003b20:	dfc01617 	ldw	ra,88(sp)
 4003b24:	df001517 	ldw	fp,84(sp)
 4003b28:	dec01704 	addi	sp,sp,92
 4003b2c:	f800283a 	ret

04003b30 <KALMANFILTER_calculatex>:

int KALMANFILTER_calculatex(float* x, float* xp, float* K, float* z, float* H) {
 4003b30:	defff104 	addi	sp,sp,-60
 4003b34:	dfc00e15 	stw	ra,56(sp)
 4003b38:	df000d15 	stw	fp,52(sp)
 4003b3c:	df000d04 	addi	fp,sp,52
 4003b40:	e13ff415 	stw	r4,-48(fp)
 4003b44:	e17ff515 	stw	r5,-44(fp)
 4003b48:	e1bff615 	stw	r6,-40(fp)
 4003b4c:	e1fff715 	stw	r7,-36(fp)
	//Matlab equivilent code
	//x = xp + K*(z - H*xp)
	//x = xp + K*(z-xp)

	//Argument Sizes
	//x[4][1]
	//xp[4][1]
	//K[4][4]
	//z[4][1]
	//H[4][4]
	float temp1[4]; //temp1[4][1]
	float temp2[4]; //temp2[4][1]

	MATRIXMATH_subtract(temp1, z, xp, 4, 1);
 4003b50:	e13ff804 	addi	r4,fp,-32
 4003b54:	00800044 	movi	r2,1
 4003b58:	d8800015 	stw	r2,0(sp)
 4003b5c:	e17ff717 	ldw	r5,-36(fp)
 4003b60:	e1bff517 	ldw	r6,-44(fp)
 4003b64:	01c00104 	movi	r7,4
 4003b68:	40040b40 	call	40040b4 <MATRIXMATH_subtract>
	MATRIXMATH_multiply(temp2, K, temp1, 4, 1);
 4003b6c:	e13ffc04 	addi	r4,fp,-16
 4003b70:	e1bff804 	addi	r6,fp,-32
 4003b74:	00800044 	movi	r2,1
 4003b78:	d8800015 	stw	r2,0(sp)
 4003b7c:	e17ff617 	ldw	r5,-40(fp)
 4003b80:	01c00104 	movi	r7,4
 4003b84:	4003ea40 	call	4003ea4 <MATRIXMATH_multiply>
	MATRIXMATH_add(x, xp, temp2, 4, 1);
 4003b88:	e1bffc04 	addi	r6,fp,-16
 4003b8c:	00800044 	movi	r2,1
 4003b90:	d8800015 	stw	r2,0(sp)
 4003b94:	e13ff417 	ldw	r4,-48(fp)
 4003b98:	e17ff517 	ldw	r5,-44(fp)
 4003b9c:	01c00104 	movi	r7,4
 4003ba0:	40040080 	call	4004008 <MATRIXMATH_add>

	#if debug == 1
	printf("x ==========\n");
	printf("  out x:  %e\t%e\t%e\t%e\n",x[0], x[1], x[2], x[3]);
	printf("  in  xp: %e\t%e\t%e\t%e\n",xp[0], xp[1], xp[2], xp[3]);
	printf("  in  K:  %e\t%e\t%e\t%e\n          %e\t%e\t%e\t%e\n          %e\t%e\t%e\t%e\n          %e\t%e\t%e\t%e\n",K[0], K[1], K[2], K[3], K[4], K[5], K[6], K[7], K[8], K[9], K[10], K[11], K[12], K[13], K[14], K[15]);
	printf("  in  z:  %e\t%e\t%e\t%e\n",z[0], z[1], z[2], z[3], z[4]);
	#endif
	return 1;
 4003ba4:	00800044 	movi	r2,1
}
 4003ba8:	dfc00e17 	ldw	ra,56(sp)
 4003bac:	df000d17 	ldw	fp,52(sp)
 4003bb0:	dec00f04 	addi	sp,sp,60
 4003bb4:	f800283a 	ret

04003bb8 <KALMANFILTER_calculatePhiThetaPsi>:

int KALMANFILTER_calculatePhiThetaPsi(float* phi, float* theta, float* psi, float* x) {
 4003bb8:	defff204 	addi	sp,sp,-56
 4003bbc:	dfc00d15 	stw	ra,52(sp)
 4003bc0:	df000c15 	stw	fp,48(sp)
 4003bc4:	dc000b15 	stw	r16,44(sp)
 4003bc8:	dc400a15 	stw	r17,40(sp)
 4003bcc:	dc800915 	stw	r18,36(sp)
 4003bd0:	df000c04 	addi	fp,sp,48
 4003bd4:	e13ff415 	stw	r4,-48(fp)
 4003bd8:	e17ff515 	stw	r5,-44(fp)
 4003bdc:	e1bff615 	stw	r6,-40(fp)
 4003be0:	e1fff715 	stw	r7,-36(fp)
	//Argument Sizes
	//phi
	//theta
	//psi
	//x[4][1]

	float temp1;
	float temp2;
	float temp3;
	float temp4;
	float temp5;

	// Calculate phi
	// phi = atan2(2*real((x(3)*x(4) + x(1)*x(2))), real(1 - 2*(x(2)^2 + x(3)^2)));
		temp1 = 2 * (x[2]*x[3] + x[0]*x[1]);
 4003be4:	e0bff717 	ldw	r2,-36(fp)
 4003be8:	10c00204 	addi	r3,r2,8
 4003bec:	e0bff717 	ldw	r2,-36(fp)
 4003bf0:	10800304 	addi	r2,r2,12
 4003bf4:	19000017 	ldw	r4,0(r3)
 4003bf8:	11400017 	ldw	r5,0(r2)
 4003bfc:	400b06c0 	call	400b06c <__mulsf3>
 4003c00:	1021883a 	mov	r16,r2
 4003c04:	e0fff717 	ldw	r3,-36(fp)
 4003c08:	e0bff717 	ldw	r2,-36(fp)
 4003c0c:	10800104 	addi	r2,r2,4
 4003c10:	19000017 	ldw	r4,0(r3)
 4003c14:	11400017 	ldw	r5,0(r2)
 4003c18:	400b06c0 	call	400b06c <__mulsf3>
 4003c1c:	8009883a 	mov	r4,r16
 4003c20:	100b883a 	mov	r5,r2
 4003c24:	400afb00 	call	400afb0 <__addsf3>
 4003c28:	1009883a 	mov	r4,r2
 4003c2c:	100b883a 	mov	r5,r2
 4003c30:	400afb00 	call	400afb0 <__addsf3>
 4003c34:	e0bff815 	stw	r2,-32(fp)
		temp2 = 1 - (2*(    x[1]*x[1] + x[2]*x[2]    ));
 4003c38:	e0bff717 	ldw	r2,-36(fp)
 4003c3c:	10800104 	addi	r2,r2,4
 4003c40:	11000017 	ldw	r4,0(r2)
 4003c44:	11400017 	ldw	r5,0(r2)
 4003c48:	400b06c0 	call	400b06c <__mulsf3>
 4003c4c:	1021883a 	mov	r16,r2
 4003c50:	e0bff717 	ldw	r2,-36(fp)
 4003c54:	10800204 	addi	r2,r2,8
 4003c58:	11000017 	ldw	r4,0(r2)
 4003c5c:	11400017 	ldw	r5,0(r2)
 4003c60:	400b06c0 	call	400b06c <__mulsf3>
 4003c64:	8009883a 	mov	r4,r16
 4003c68:	100b883a 	mov	r5,r2
 4003c6c:	400afb00 	call	400afb0 <__addsf3>
 4003c70:	1009883a 	mov	r4,r2
 4003c74:	100b883a 	mov	r5,r2
 4003c78:	400afb00 	call	400afb0 <__addsf3>
 4003c7c:	010fe034 	movhi	r4,16256
 4003c80:	21000004 	addi	r4,r4,0
 4003c84:	100b883a 	mov	r5,r2
 4003c88:	400b0080 	call	400b008 <__subsf3>
 4003c8c:	e0bff915 	stw	r2,-28(fp)
	*phi = (float) atan2(temp1, temp2);
 4003c90:	e4bff417 	ldw	r18,-48(fp)
 4003c94:	e13ff817 	ldw	r4,-32(fp)
 4003c98:	400b5940 	call	400b594 <__extendsfdf2>
 4003c9c:	1021883a 	mov	r16,r2
 4003ca0:	1823883a 	mov	r17,r3
 4003ca4:	e13ff917 	ldw	r4,-28(fp)
 4003ca8:	400b5940 	call	400b594 <__extendsfdf2>
 4003cac:	100f883a 	mov	r7,r2
 4003cb0:	1811883a 	mov	r8,r3
 4003cb4:	8009883a 	mov	r4,r16
 4003cb8:	880b883a 	mov	r5,r17
 4003cbc:	380d883a 	mov	r6,r7
 4003cc0:	400f883a 	mov	r7,r8
 4003cc4:	40071c00 	call	40071c0 <atan2>
 4003cc8:	100b883a 	mov	r5,r2
 4003ccc:	180d883a 	mov	r6,r3
 4003cd0:	2809883a 	mov	r4,r5
 4003cd4:	300b883a 	mov	r5,r6
 4003cd8:	400c4bc0 	call	400c4bc <__truncdfsf2>
 4003cdc:	90800015 	stw	r2,0(r18)

	// Calculate theta
	// theta = -asin(2*(x(2)*x(4) - x(1)*x(3)));
		temp3 = 2 *(x[1]*x[3] - x[0]*x[2]);
 4003ce0:	e0bff717 	ldw	r2,-36(fp)
 4003ce4:	10c00104 	addi	r3,r2,4
 4003ce8:	e0bff717 	ldw	r2,-36(fp)
 4003cec:	10800304 	addi	r2,r2,12
 4003cf0:	19000017 	ldw	r4,0(r3)
 4003cf4:	11400017 	ldw	r5,0(r2)
 4003cf8:	400b06c0 	call	400b06c <__mulsf3>
 4003cfc:	1021883a 	mov	r16,r2
 4003d00:	e0fff717 	ldw	r3,-36(fp)
 4003d04:	e0bff717 	ldw	r2,-36(fp)
 4003d08:	10800204 	addi	r2,r2,8
 4003d0c:	19000017 	ldw	r4,0(r3)
 4003d10:	11400017 	ldw	r5,0(r2)
 4003d14:	400b06c0 	call	400b06c <__mulsf3>
 4003d18:	8009883a 	mov	r4,r16
 4003d1c:	100b883a 	mov	r5,r2
 4003d20:	400b0080 	call	400b008 <__subsf3>
 4003d24:	1009883a 	mov	r4,r2
 4003d28:	100b883a 	mov	r5,r2
 4003d2c:	400afb00 	call	400afb0 <__addsf3>
 4003d30:	e0bffa15 	stw	r2,-24(fp)
	*theta = (float) 0 - asin((float)temp3);
 4003d34:	e43ff517 	ldw	r16,-44(fp)
 4003d38:	e13ffa17 	ldw	r4,-24(fp)
 4003d3c:	400b5940 	call	400b594 <__extendsfdf2>
 4003d40:	100b883a 	mov	r5,r2
 4003d44:	180d883a 	mov	r6,r3
 4003d48:	2809883a 	mov	r4,r5
 4003d4c:	300b883a 	mov	r5,r6
 4003d50:	40070940 	call	4007094 <asin>
 4003d54:	100f883a 	mov	r7,r2
 4003d58:	1811883a 	mov	r8,r3
 4003d5c:	0009883a 	mov	r4,zero
 4003d60:	000b883a 	mov	r5,zero
 4003d64:	380d883a 	mov	r6,r7
 4003d68:	400f883a 	mov	r7,r8
 4003d6c:	400b9780 	call	400b978 <__subdf3>
 4003d70:	100b883a 	mov	r5,r2
 4003d74:	180d883a 	mov	r6,r3
 4003d78:	2809883a 	mov	r4,r5
 4003d7c:	300b883a 	mov	r5,r6
 4003d80:	400c4bc0 	call	400c4bc <__truncdfsf2>
 4003d84:	80800015 	stw	r2,0(r16)

	// Calculate psi
	// psi = atan2(2*real((x(2)*x(3) + x(1)*x(4))), real(1 - 2*(x(3)^2 + x(4)^2)));
		temp4 = 2 * (x[1]*x[2] + x[0]*x[3]);
 4003d88:	e0bff717 	ldw	r2,-36(fp)
 4003d8c:	10c00104 	addi	r3,r2,4
 4003d90:	e0bff717 	ldw	r2,-36(fp)
 4003d94:	10800204 	addi	r2,r2,8
 4003d98:	19000017 	ldw	r4,0(r3)
 4003d9c:	11400017 	ldw	r5,0(r2)
 4003da0:	400b06c0 	call	400b06c <__mulsf3>
 4003da4:	1021883a 	mov	r16,r2
 4003da8:	e0fff717 	ldw	r3,-36(fp)
 4003dac:	e0bff717 	ldw	r2,-36(fp)
 4003db0:	10800304 	addi	r2,r2,12
 4003db4:	19000017 	ldw	r4,0(r3)
 4003db8:	11400017 	ldw	r5,0(r2)
 4003dbc:	400b06c0 	call	400b06c <__mulsf3>
 4003dc0:	8009883a 	mov	r4,r16
 4003dc4:	100b883a 	mov	r5,r2
 4003dc8:	400afb00 	call	400afb0 <__addsf3>
 4003dcc:	1009883a 	mov	r4,r2
 4003dd0:	100b883a 	mov	r5,r2
 4003dd4:	400afb00 	call	400afb0 <__addsf3>
 4003dd8:	e0bffb15 	stw	r2,-20(fp)
		temp5 = 1 - (2*(    x[2]*x[2] + x[3]*x[3]    ));
 4003ddc:	e0bff717 	ldw	r2,-36(fp)
 4003de0:	10800204 	addi	r2,r2,8
 4003de4:	11000017 	ldw	r4,0(r2)
 4003de8:	11400017 	ldw	r5,0(r2)
 4003dec:	400b06c0 	call	400b06c <__mulsf3>
 4003df0:	1021883a 	mov	r16,r2
 4003df4:	e0bff717 	ldw	r2,-36(fp)
 4003df8:	10800304 	addi	r2,r2,12
 4003dfc:	11000017 	ldw	r4,0(r2)
 4003e00:	11400017 	ldw	r5,0(r2)
 4003e04:	400b06c0 	call	400b06c <__mulsf3>
 4003e08:	8009883a 	mov	r4,r16
 4003e0c:	100b883a 	mov	r5,r2
 4003e10:	400afb00 	call	400afb0 <__addsf3>
 4003e14:	1009883a 	mov	r4,r2
 4003e18:	100b883a 	mov	r5,r2
 4003e1c:	400afb00 	call	400afb0 <__addsf3>
 4003e20:	010fe034 	movhi	r4,16256
 4003e24:	21000004 	addi	r4,r4,0
 4003e28:	100b883a 	mov	r5,r2
 4003e2c:	400b0080 	call	400b008 <__subsf3>
 4003e30:	e0bffc15 	stw	r2,-16(fp)
	*psi = (float) atan2(temp4, temp5);
 4003e34:	e4bff617 	ldw	r18,-40(fp)
 4003e38:	e13ffb17 	ldw	r4,-20(fp)
 4003e3c:	400b5940 	call	400b594 <__extendsfdf2>
 4003e40:	1021883a 	mov	r16,r2
 4003e44:	1823883a 	mov	r17,r3
 4003e48:	e13ffc17 	ldw	r4,-16(fp)
 4003e4c:	400b5940 	call	400b594 <__extendsfdf2>
 4003e50:	100f883a 	mov	r7,r2
 4003e54:	1811883a 	mov	r8,r3
 4003e58:	8009883a 	mov	r4,r16
 4003e5c:	880b883a 	mov	r5,r17
 4003e60:	380d883a 	mov	r6,r7
 4003e64:	400f883a 	mov	r7,r8
 4003e68:	40071c00 	call	40071c0 <atan2>
 4003e6c:	100b883a 	mov	r5,r2
 4003e70:	180d883a 	mov	r6,r3
 4003e74:	2809883a 	mov	r4,r5
 4003e78:	300b883a 	mov	r5,r6
 4003e7c:	400c4bc0 	call	400c4bc <__truncdfsf2>
 4003e80:	90800015 	stw	r2,0(r18)
	return 1;
 4003e84:	00800044 	movi	r2,1
}
 4003e88:	dfc00d17 	ldw	ra,52(sp)
 4003e8c:	df000c17 	ldw	fp,48(sp)
 4003e90:	dc000b17 	ldw	r16,44(sp)
 4003e94:	dc400a17 	ldw	r17,40(sp)
 4003e98:	dc800917 	ldw	r18,36(sp)
 4003e9c:	dec00e04 	addi	sp,sp,56
 4003ea0:	f800283a 	ret

04003ea4 <MATRIXMATH_multiply>:
//------------------//
// Public Functions //
//------------------//

int MATRIXMATH_multiply(float* matrix_c, float* matrix_a, float* matrix_b, int num_rows, int num_columns) {
 4003ea4:	defff504 	addi	sp,sp,-44
 4003ea8:	dfc00a15 	stw	ra,40(sp)
 4003eac:	df000915 	stw	fp,36(sp)
 4003eb0:	dc000815 	stw	r16,32(sp)
 4003eb4:	dc400715 	stw	r17,28(sp)
 4003eb8:	df000904 	addi	fp,sp,36
 4003ebc:	e13ff715 	stw	r4,-36(fp)
 4003ec0:	e17ff815 	stw	r5,-32(fp)
 4003ec4:	e1bff915 	stw	r6,-28(fp)
 4003ec8:	e1fffa15 	stw	r7,-24(fp)
	int row;
	int column;
	int i;

	for (row=0; row<num_rows; row=row+1)
 4003ecc:	e03ffb15 	stw	zero,-20(fp)
 4003ed0:	e0fffb17 	ldw	r3,-20(fp)
 4003ed4:	e0bffa17 	ldw	r2,-24(fp)
 4003ed8:	1880440e 	bge	r3,r2,4003fec <MATRIXMATH_multiply+0x148>
	{
		for (column=0; column<num_columns; column=column+1)
 4003edc:	e03ffc15 	stw	zero,-16(fp)
 4003ee0:	e0fffc17 	ldw	r3,-16(fp)
 4003ee4:	e0800217 	ldw	r2,8(fp)
 4003ee8:	18803c0e 	bge	r3,r2,4003fdc <MATRIXMATH_multiply+0x138>
		{
			//c[row][column] = 0
			matrix_c[row*num_columns+column] = 0;
 4003eec:	e0fffb17 	ldw	r3,-20(fp)
 4003ef0:	e0800217 	ldw	r2,8(fp)
 4003ef4:	1887383a 	mul	r3,r3,r2
 4003ef8:	e0bffc17 	ldw	r2,-16(fp)
 4003efc:	1885883a 	add	r2,r3,r2
 4003f00:	10c00124 	muli	r3,r2,4
 4003f04:	e0bff717 	ldw	r2,-36(fp)
 4003f08:	1885883a 	add	r2,r3,r2
 4003f0c:	10000015 	stw	zero,0(r2)
			for (i=0; i<num_rows; i=i+1)
 4003f10:	e03ffd15 	stw	zero,-12(fp)
 4003f14:	e0fffd17 	ldw	r3,-12(fp)
 4003f18:	e0bffa17 	ldw	r2,-24(fp)
 4003f1c:	18802b0e 	bge	r3,r2,4003fcc <MATRIXMATH_multiply+0x128>
			{
				//c[row][column] = c[row][column] + a[row][column] * b[row][column]
				matrix_c[row*num_columns+column] = matrix_c[row*num_columns+column] + matrix_a[row*num_rows+i]*matrix_b[i*num_columns+column];
 4003f20:	e0fffb17 	ldw	r3,-20(fp)
 4003f24:	e0800217 	ldw	r2,8(fp)
 4003f28:	1887383a 	mul	r3,r3,r2
 4003f2c:	e0bffc17 	ldw	r2,-16(fp)
 4003f30:	1885883a 	add	r2,r3,r2
 4003f34:	10c00124 	muli	r3,r2,4
 4003f38:	e0bff717 	ldw	r2,-36(fp)
 4003f3c:	18a1883a 	add	r16,r3,r2
 4003f40:	e0fffb17 	ldw	r3,-20(fp)
 4003f44:	e0800217 	ldw	r2,8(fp)
 4003f48:	1887383a 	mul	r3,r3,r2
 4003f4c:	e0bffc17 	ldw	r2,-16(fp)
 4003f50:	1885883a 	add	r2,r3,r2
 4003f54:	10c00124 	muli	r3,r2,4
 4003f58:	e0bff717 	ldw	r2,-36(fp)
 4003f5c:	18a3883a 	add	r17,r3,r2
 4003f60:	e0fffb17 	ldw	r3,-20(fp)
 4003f64:	e0bffa17 	ldw	r2,-24(fp)
 4003f68:	1887383a 	mul	r3,r3,r2
 4003f6c:	e0bffd17 	ldw	r2,-12(fp)
 4003f70:	1885883a 	add	r2,r3,r2
 4003f74:	10c00124 	muli	r3,r2,4
 4003f78:	e0bff817 	ldw	r2,-32(fp)
 4003f7c:	1889883a 	add	r4,r3,r2
 4003f80:	e0fffd17 	ldw	r3,-12(fp)
 4003f84:	e0800217 	ldw	r2,8(fp)
 4003f88:	1887383a 	mul	r3,r3,r2
 4003f8c:	e0bffc17 	ldw	r2,-16(fp)
 4003f90:	1885883a 	add	r2,r3,r2
 4003f94:	10c00124 	muli	r3,r2,4
 4003f98:	e0bff917 	ldw	r2,-28(fp)
 4003f9c:	1885883a 	add	r2,r3,r2
 4003fa0:	21000017 	ldw	r4,0(r4)
 4003fa4:	11400017 	ldw	r5,0(r2)
 4003fa8:	400b06c0 	call	400b06c <__mulsf3>
 4003fac:	89000017 	ldw	r4,0(r17)
 4003fb0:	100b883a 	mov	r5,r2
 4003fb4:	400afb00 	call	400afb0 <__addsf3>
 4003fb8:	80800015 	stw	r2,0(r16)
 4003fbc:	e0bffd17 	ldw	r2,-12(fp)
 4003fc0:	10800044 	addi	r2,r2,1
 4003fc4:	e0bffd15 	stw	r2,-12(fp)
 4003fc8:	003fd206 	br	4003f14 <MATRIXMATH_multiply+0x70>
 4003fcc:	e0bffc17 	ldw	r2,-16(fp)
 4003fd0:	10800044 	addi	r2,r2,1
 4003fd4:	e0bffc15 	stw	r2,-16(fp)
 4003fd8:	003fc106 	br	4003ee0 <MATRIXMATH_multiply+0x3c>
 4003fdc:	e0bffb17 	ldw	r2,-20(fp)
 4003fe0:	10800044 	addi	r2,r2,1
 4003fe4:	e0bffb15 	stw	r2,-20(fp)
 4003fe8:	003fb906 	br	4003ed0 <MATRIXMATH_multiply+0x2c>
			}
		}
	}

	return 1;
 4003fec:	00800044 	movi	r2,1
}
 4003ff0:	dfc00a17 	ldw	ra,40(sp)
 4003ff4:	df000917 	ldw	fp,36(sp)
 4003ff8:	dc000817 	ldw	r16,32(sp)
 4003ffc:	dc400717 	ldw	r17,28(sp)
 4004000:	dec00b04 	addi	sp,sp,44
 4004004:	f800283a 	ret

04004008 <MATRIXMATH_add>:

int MATRIXMATH_add(float* matrix_c, float* matrix_a, float* matrix_b, int num_rows, int num_columns) {
 4004008:	defff704 	addi	sp,sp,-36
 400400c:	dfc00815 	stw	ra,32(sp)
 4004010:	df000715 	stw	fp,28(sp)
 4004014:	dc000615 	stw	r16,24(sp)
 4004018:	df000704 	addi	fp,sp,28
 400401c:	e13ff915 	stw	r4,-28(fp)
 4004020:	e17ffa15 	stw	r5,-24(fp)
 4004024:	e1bffb15 	stw	r6,-20(fp)
 4004028:	e1fffc15 	stw	r7,-16(fp)
	int i;
	int i_max;

	i_max = num_rows*num_columns;
 400402c:	e0bffc17 	ldw	r2,-16(fp)
 4004030:	e0c00217 	ldw	r3,8(fp)
 4004034:	10c5383a 	mul	r2,r2,r3
 4004038:	e0bffe15 	stw	r2,-8(fp)
	for (i=0; i<i_max; i=i+1)
 400403c:	e03ffd15 	stw	zero,-12(fp)
 4004040:	e0fffd17 	ldw	r3,-12(fp)
 4004044:	e0bffe17 	ldw	r2,-8(fp)
 4004048:	1880140e 	bge	r3,r2,400409c <MATRIXMATH_add+0x94>
	{
		matrix_c[i] = matrix_a[i] + matrix_b[i];
 400404c:	e0bffd17 	ldw	r2,-12(fp)
 4004050:	10c00124 	muli	r3,r2,4
 4004054:	e0bff917 	ldw	r2,-28(fp)
 4004058:	18a1883a 	add	r16,r3,r2
 400405c:	e0bffd17 	ldw	r2,-12(fp)
 4004060:	10c00124 	muli	r3,r2,4
 4004064:	e0bffa17 	ldw	r2,-24(fp)
 4004068:	1889883a 	add	r4,r3,r2
 400406c:	e0bffd17 	ldw	r2,-12(fp)
 4004070:	10c00124 	muli	r3,r2,4
 4004074:	e0bffb17 	ldw	r2,-20(fp)
 4004078:	1885883a 	add	r2,r3,r2
 400407c:	21000017 	ldw	r4,0(r4)
 4004080:	11400017 	ldw	r5,0(r2)
 4004084:	400afb00 	call	400afb0 <__addsf3>
 4004088:	80800015 	stw	r2,0(r16)
 400408c:	e0bffd17 	ldw	r2,-12(fp)
 4004090:	10800044 	addi	r2,r2,1
 4004094:	e0bffd15 	stw	r2,-12(fp)
 4004098:	003fe906 	br	4004040 <MATRIXMATH_add+0x38>
	}

	return 1;
 400409c:	00800044 	movi	r2,1
}
 40040a0:	dfc00817 	ldw	ra,32(sp)
 40040a4:	df000717 	ldw	fp,28(sp)
 40040a8:	dc000617 	ldw	r16,24(sp)
 40040ac:	dec00904 	addi	sp,sp,36
 40040b0:	f800283a 	ret

040040b4 <MATRIXMATH_subtract>:

int MATRIXMATH_subtract(float* matrix_c, float* matrix_a, float* matrix_b, int num_rows, int num_columns) {
 40040b4:	defff704 	addi	sp,sp,-36
 40040b8:	dfc00815 	stw	ra,32(sp)
 40040bc:	df000715 	stw	fp,28(sp)
 40040c0:	dc000615 	stw	r16,24(sp)
 40040c4:	df000704 	addi	fp,sp,28
 40040c8:	e13ff915 	stw	r4,-28(fp)
 40040cc:	e17ffa15 	stw	r5,-24(fp)
 40040d0:	e1bffb15 	stw	r6,-20(fp)
 40040d4:	e1fffc15 	stw	r7,-16(fp)
	int i;
	int i_max;

	i_max = num_rows*num_columns;
 40040d8:	e0bffc17 	ldw	r2,-16(fp)
 40040dc:	e0c00217 	ldw	r3,8(fp)
 40040e0:	10c5383a 	mul	r2,r2,r3
 40040e4:	e0bffe15 	stw	r2,-8(fp)
	for (i=0; i<i_max; i=i+1)
 40040e8:	e03ffd15 	stw	zero,-12(fp)
 40040ec:	e0fffd17 	ldw	r3,-12(fp)
 40040f0:	e0bffe17 	ldw	r2,-8(fp)
 40040f4:	1880140e 	bge	r3,r2,4004148 <MATRIXMATH_subtract+0x94>
	{
		matrix_c[i] = matrix_a[i] - matrix_b[i];
 40040f8:	e0bffd17 	ldw	r2,-12(fp)
 40040fc:	10c00124 	muli	r3,r2,4
 4004100:	e0bff917 	ldw	r2,-28(fp)
 4004104:	18a1883a 	add	r16,r3,r2
 4004108:	e0bffd17 	ldw	r2,-12(fp)
 400410c:	10c00124 	muli	r3,r2,4
 4004110:	e0bffa17 	ldw	r2,-24(fp)
 4004114:	1889883a 	add	r4,r3,r2
 4004118:	e0bffd17 	ldw	r2,-12(fp)
 400411c:	10c00124 	muli	r3,r2,4
 4004120:	e0bffb17 	ldw	r2,-20(fp)
 4004124:	1885883a 	add	r2,r3,r2
 4004128:	21000017 	ldw	r4,0(r4)
 400412c:	11400017 	ldw	r5,0(r2)
 4004130:	400b0080 	call	400b008 <__subsf3>
 4004134:	80800015 	stw	r2,0(r16)
 4004138:	e0bffd17 	ldw	r2,-12(fp)
 400413c:	10800044 	addi	r2,r2,1
 4004140:	e0bffd15 	stw	r2,-12(fp)
 4004144:	003fe906 	br	40040ec <MATRIXMATH_subtract+0x38>
	}

	return 1;
 4004148:	00800044 	movi	r2,1
}
 400414c:	dfc00817 	ldw	ra,32(sp)
 4004150:	df000717 	ldw	fp,28(sp)
 4004154:	dc000617 	ldw	r16,24(sp)
 4004158:	dec00904 	addi	sp,sp,36
 400415c:	f800283a 	ret

04004160 <MATRIXMATH_inverse4x4>:

int MATRIXMATH_inverse4x4(float* matrix_out, float* matrix_in) {
 4004160:	defff804 	addi	sp,sp,-32
 4004164:	dfc00715 	stw	ra,28(sp)
 4004168:	df000615 	stw	fp,24(sp)
 400416c:	dc000515 	stw	r16,20(sp)
 4004170:	dc400415 	stw	r17,16(sp)
 4004174:	df000604 	addi	fp,sp,24
 4004178:	e13ffa15 	stw	r4,-24(fp)
 400417c:	e17ffb15 	stw	r5,-20(fp)
	//There's a lot of math here.
	//It's probably not very efficient math either.
	//But it works.
	float det_A;
	float inv_det_A;

	det_A = matrix_in[0]*matrix_in[5]*matrix_in[10]*matrix_in[15]
 4004180:	e0fffb17 	ldw	r3,-20(fp)
 4004184:	e0bffb17 	ldw	r2,-20(fp)
 4004188:	10800504 	addi	r2,r2,20
 400418c:	19000017 	ldw	r4,0(r3)
 4004190:	11400017 	ldw	r5,0(r2)
 4004194:	400b06c0 	call	400b06c <__mulsf3>
 4004198:	1007883a 	mov	r3,r2
 400419c:	e0bffb17 	ldw	r2,-20(fp)
 40041a0:	10800a04 	addi	r2,r2,40
 40041a4:	1809883a 	mov	r4,r3
 40041a8:	11400017 	ldw	r5,0(r2)
 40041ac:	400b06c0 	call	400b06c <__mulsf3>
 40041b0:	1007883a 	mov	r3,r2
 40041b4:	e0bffb17 	ldw	r2,-20(fp)
 40041b8:	10800f04 	addi	r2,r2,60
 40041bc:	1809883a 	mov	r4,r3
 40041c0:	11400017 	ldw	r5,0(r2)
 40041c4:	400b06c0 	call	400b06c <__mulsf3>
 40041c8:	1021883a 	mov	r16,r2
 40041cc:	e0fffb17 	ldw	r3,-20(fp)
 40041d0:	e0bffb17 	ldw	r2,-20(fp)
 40041d4:	10800604 	addi	r2,r2,24
 40041d8:	19000017 	ldw	r4,0(r3)
 40041dc:	11400017 	ldw	r5,0(r2)
 40041e0:	400b06c0 	call	400b06c <__mulsf3>
 40041e4:	1007883a 	mov	r3,r2
 40041e8:	e0bffb17 	ldw	r2,-20(fp)
 40041ec:	10800b04 	addi	r2,r2,44
 40041f0:	1809883a 	mov	r4,r3
 40041f4:	11400017 	ldw	r5,0(r2)
 40041f8:	400b06c0 	call	400b06c <__mulsf3>
 40041fc:	1007883a 	mov	r3,r2
 4004200:	e0bffb17 	ldw	r2,-20(fp)
 4004204:	10800d04 	addi	r2,r2,52
 4004208:	1809883a 	mov	r4,r3
 400420c:	11400017 	ldw	r5,0(r2)
 4004210:	400b06c0 	call	400b06c <__mulsf3>
 4004214:	8009883a 	mov	r4,r16
 4004218:	100b883a 	mov	r5,r2
 400421c:	400afb00 	call	400afb0 <__addsf3>
 4004220:	1021883a 	mov	r16,r2
 4004224:	e0fffb17 	ldw	r3,-20(fp)
 4004228:	e0bffb17 	ldw	r2,-20(fp)
 400422c:	10800704 	addi	r2,r2,28
 4004230:	19000017 	ldw	r4,0(r3)
 4004234:	11400017 	ldw	r5,0(r2)
 4004238:	400b06c0 	call	400b06c <__mulsf3>
 400423c:	1007883a 	mov	r3,r2
 4004240:	e0bffb17 	ldw	r2,-20(fp)
 4004244:	10800904 	addi	r2,r2,36
 4004248:	1809883a 	mov	r4,r3
 400424c:	11400017 	ldw	r5,0(r2)
 4004250:	400b06c0 	call	400b06c <__mulsf3>
 4004254:	1007883a 	mov	r3,r2
 4004258:	e0bffb17 	ldw	r2,-20(fp)
 400425c:	10800e04 	addi	r2,r2,56
 4004260:	1809883a 	mov	r4,r3
 4004264:	11400017 	ldw	r5,0(r2)
 4004268:	400b06c0 	call	400b06c <__mulsf3>
 400426c:	8009883a 	mov	r4,r16
 4004270:	100b883a 	mov	r5,r2
 4004274:	400afb00 	call	400afb0 <__addsf3>
 4004278:	1021883a 	mov	r16,r2
 400427c:	e0bffb17 	ldw	r2,-20(fp)
 4004280:	10c00104 	addi	r3,r2,4
 4004284:	e0bffb17 	ldw	r2,-20(fp)
 4004288:	10800404 	addi	r2,r2,16
 400428c:	19000017 	ldw	r4,0(r3)
 4004290:	11400017 	ldw	r5,0(r2)
 4004294:	400b06c0 	call	400b06c <__mulsf3>
 4004298:	1007883a 	mov	r3,r2
 400429c:	e0bffb17 	ldw	r2,-20(fp)
 40042a0:	10800b04 	addi	r2,r2,44
 40042a4:	1809883a 	mov	r4,r3
 40042a8:	11400017 	ldw	r5,0(r2)
 40042ac:	400b06c0 	call	400b06c <__mulsf3>
 40042b0:	1007883a 	mov	r3,r2
 40042b4:	e0bffb17 	ldw	r2,-20(fp)
 40042b8:	10800e04 	addi	r2,r2,56
 40042bc:	1809883a 	mov	r4,r3
 40042c0:	11400017 	ldw	r5,0(r2)
 40042c4:	400b06c0 	call	400b06c <__mulsf3>
 40042c8:	8009883a 	mov	r4,r16
 40042cc:	100b883a 	mov	r5,r2
 40042d0:	400afb00 	call	400afb0 <__addsf3>
 40042d4:	1021883a 	mov	r16,r2
 40042d8:	e0bffb17 	ldw	r2,-20(fp)
 40042dc:	10c00104 	addi	r3,r2,4
 40042e0:	e0bffb17 	ldw	r2,-20(fp)
 40042e4:	10800604 	addi	r2,r2,24
 40042e8:	19000017 	ldw	r4,0(r3)
 40042ec:	11400017 	ldw	r5,0(r2)
 40042f0:	400b06c0 	call	400b06c <__mulsf3>
 40042f4:	1007883a 	mov	r3,r2
 40042f8:	e0bffb17 	ldw	r2,-20(fp)
 40042fc:	10800804 	addi	r2,r2,32
 4004300:	1809883a 	mov	r4,r3
 4004304:	11400017 	ldw	r5,0(r2)
 4004308:	400b06c0 	call	400b06c <__mulsf3>
 400430c:	1007883a 	mov	r3,r2
 4004310:	e0bffb17 	ldw	r2,-20(fp)
 4004314:	10800f04 	addi	r2,r2,60
 4004318:	1809883a 	mov	r4,r3
 400431c:	11400017 	ldw	r5,0(r2)
 4004320:	400b06c0 	call	400b06c <__mulsf3>
 4004324:	8009883a 	mov	r4,r16
 4004328:	100b883a 	mov	r5,r2
 400432c:	400afb00 	call	400afb0 <__addsf3>
 4004330:	1021883a 	mov	r16,r2
 4004334:	e0bffb17 	ldw	r2,-20(fp)
 4004338:	10c00104 	addi	r3,r2,4
 400433c:	e0bffb17 	ldw	r2,-20(fp)
 4004340:	10800704 	addi	r2,r2,28
 4004344:	19000017 	ldw	r4,0(r3)
 4004348:	11400017 	ldw	r5,0(r2)
